
testprog.elf:     file format elf32-littleriscv


Disassembly of section .text:

00000000 <entry>:
   0:	00001197          	auipc	gp,0x1
   4:	7ff18193          	addi	gp,gp,2047 # 17ff <__global_pointer$>
   8:	00001117          	auipc	sp,0x1
   c:	0f810113          	addi	sp,sp,248 # 1100 <__stack_end>
  10:	008000ef          	jal	18 <main>
  14:	ffdff06f          	j	10 <entry+0x10>

00000018 <main>:
  18:	fe010113          	addi	sp,sp,-32
  1c:	00812e23          	sw	s0,28(sp)
  20:	02010413          	addi	s0,sp,32
  24:	fe042623          	sw	zero,-20(s0)
  28:	0500006f          	j	78 <main+0x60>
  2c:	fec42783          	lw	a5,-20(s0)
  30:	0ff7f793          	zext.b	a5,a5
  34:	06178793          	addi	a5,a5,97
  38:	0ff7f713          	zext.b	a4,a5
  3c:	00002797          	auipc	a5,0x2
  40:	fc478793          	addi	a5,a5,-60 # 2000 <uart_tx>
  44:	00e78023          	sb	a4,0(a5)
  48:	fe042423          	sw	zero,-24(s0)
  4c:	0140006f          	j	60 <main+0x48>
  50:	00000013          	nop
  54:	fe842783          	lw	a5,-24(s0)
  58:	00178793          	addi	a5,a5,1
  5c:	fef42423          	sw	a5,-24(s0)
  60:	fe842703          	lw	a4,-24(s0)
  64:	3e700793          	li	a5,999
  68:	fee7d4e3          	bge	a5,a4,50 <main+0x38>
  6c:	fec42783          	lw	a5,-20(s0)
  70:	00178793          	addi	a5,a5,1
  74:	fef42623          	sw	a5,-20(s0)
  78:	fec42703          	lw	a4,-20(s0)
  7c:	01a00793          	li	a5,26
  80:	fae7d6e3          	bge	a5,a4,2c <main+0x14>
  84:	fa1ff06f          	j	24 <main+0xc>
