
rv32ui-p-sll:     file format elf32-littleriscv


Disassembly of section .text:

00010000 <_start>:
   10000:	0500006f          	j	10050 <reset_vector>

00010004 <trap_vector>:
   10004:	34202f73          	csrr	t5,mcause
   10008:	00800f93          	li	t6,8
   1000c:	03ff0863          	beq	t5,t6,1003c <write_tohost>
   10010:	00900f93          	li	t6,9
   10014:	03ff0463          	beq	t5,t6,1003c <write_tohost>
   10018:	00b00f93          	li	t6,11
   1001c:	03ff0063          	beq	t5,t6,1003c <write_tohost>
   10020:	00000f13          	li	t5,0
   10024:	000f0463          	beqz	t5,1002c <trap_vector+0x28>
   10028:	000f0067          	jr	t5
   1002c:	34202f73          	csrr	t5,mcause
   10030:	000f5463          	bgez	t5,10038 <handle_exception>
   10034:	0040006f          	j	10038 <handle_exception>

00010038 <handle_exception>:
   10038:	5391e193          	ori	gp,gp,1337

0001003c <write_tohost>:
   1003c:	00000f17          	auipc	t5,0x0
   10040:	743f2223          	sw	gp,1860(t5) # 10780 <_end>
   10044:	00000f17          	auipc	t5,0x0
   10048:	740f2023          	sw	zero,1856(t5) # 10784 <_end+0x4>
   1004c:	ff1ff06f          	j	1003c <write_tohost>

00010050 <reset_vector>:
   10050:	00000093          	li	ra,0
   10054:	00000113          	li	sp,0
   10058:	00000193          	li	gp,0
   1005c:	00000213          	li	tp,0
   10060:	00000293          	li	t0,0
   10064:	00000313          	li	t1,0
   10068:	00000393          	li	t2,0
   1006c:	00000413          	li	s0,0
   10070:	00000493          	li	s1,0
   10074:	00000513          	li	a0,0
   10078:	00000593          	li	a1,0
   1007c:	00000613          	li	a2,0
   10080:	00000693          	li	a3,0
   10084:	00000713          	li	a4,0
   10088:	00000793          	li	a5,0
   1008c:	00000813          	li	a6,0
   10090:	00000893          	li	a7,0
   10094:	00000913          	li	s2,0
   10098:	00000993          	li	s3,0
   1009c:	00000a13          	li	s4,0
   100a0:	00000a93          	li	s5,0
   100a4:	00000b13          	li	s6,0
   100a8:	00000b93          	li	s7,0
   100ac:	00000c13          	li	s8,0
   100b0:	00000c93          	li	s9,0
   100b4:	00000d13          	li	s10,0
   100b8:	00000d93          	li	s11,0
   100bc:	00000e13          	li	t3,0
   100c0:	00000e93          	li	t4,0
   100c4:	00000f13          	li	t5,0
   100c8:	00000f93          	li	t6,0
   100cc:	f1402573          	csrr	a0,mhartid
   100d0:	00051063          	bnez	a0,100d0 <reset_vector+0x80>
   100d4:	00000297          	auipc	t0,0x0
   100d8:	01028293          	addi	t0,t0,16 # 100e4 <reset_vector+0x94>
   100dc:	30529073          	csrw	mtvec,t0
   100e0:	74445073          	csrwi	0x744,8
   100e4:	00000297          	auipc	t0,0x0
   100e8:	01028293          	addi	t0,t0,16 # 100f4 <reset_vector+0xa4>
   100ec:	30529073          	csrw	mtvec,t0
   100f0:	18005073          	csrwi	satp,0
   100f4:	00000297          	auipc	t0,0x0
   100f8:	02028293          	addi	t0,t0,32 # 10114 <reset_vector+0xc4>
   100fc:	30529073          	csrw	mtvec,t0
   10100:	800002b7          	lui	t0,0x80000
   10104:	fff28293          	addi	t0,t0,-1 # 7fffffff <fromhost+0x7ffef83f>
   10108:	3b029073          	csrw	pmpaddr0,t0
   1010c:	01f00293          	li	t0,31
   10110:	3a029073          	csrw	pmpcfg0,t0
   10114:	30405073          	csrwi	mie,0
   10118:	00000297          	auipc	t0,0x0
   1011c:	01428293          	addi	t0,t0,20 # 1012c <reset_vector+0xdc>
   10120:	30529073          	csrw	mtvec,t0
   10124:	30205073          	csrwi	medeleg,0
   10128:	30305073          	csrwi	mideleg,0
   1012c:	00000193          	li	gp,0
   10130:	00000297          	auipc	t0,0x0
   10134:	ed428293          	addi	t0,t0,-300 # 10004 <trap_vector>
   10138:	30529073          	csrw	mtvec,t0
   1013c:	00100513          	li	a0,1
   10140:	01f51513          	slli	a0,a0,0x1f
   10144:	02054463          	bltz	a0,1016c <reset_vector+0x11c>
   10148:	0ff0000f          	fence
   1014c:	00100193          	li	gp,1
   10150:	05d00893          	li	a7,93
   10154:	00000513          	li	a0,0
   10158:	00100593          	li	a1,1
   1015c:	00c59593          	slli	a1,a1,0xc
   10160:	00358023          	sb	gp,0(a1)
   10164:	e9dff06f          	j	10000 <_start>
   10168:	00000073          	ecall
   1016c:	00000293          	li	t0,0
   10170:	00028a63          	beqz	t0,10184 <reset_vector+0x134>
   10174:	10529073          	csrw	stvec,t0
   10178:	0000b2b7          	lui	t0,0xb
   1017c:	10928293          	addi	t0,t0,265 # b109 <_start-0x4ef7>
   10180:	30229073          	csrw	medeleg,t0
   10184:	30005073          	csrwi	mstatus,0
   10188:	00000297          	auipc	t0,0x0
   1018c:	01428293          	addi	t0,t0,20 # 1019c <test_2>
   10190:	34129073          	csrw	mepc,t0
   10194:	f1402573          	csrr	a0,mhartid
   10198:	30200073          	mret

0001019c <test_2>:
   1019c:	00200193          	li	gp,2
   101a0:	00100093          	li	ra,1
   101a4:	00000113          	li	sp,0
   101a8:	00209733          	sll	a4,ra,sp
   101ac:	00100393          	li	t2,1
   101b0:	52771e63          	bne	a4,t2,106ec <fail>

000101b4 <test_3>:
   101b4:	00300193          	li	gp,3
   101b8:	00100093          	li	ra,1
   101bc:	00100113          	li	sp,1
   101c0:	00209733          	sll	a4,ra,sp
   101c4:	00200393          	li	t2,2
   101c8:	52771263          	bne	a4,t2,106ec <fail>

000101cc <test_4>:
   101cc:	00400193          	li	gp,4
   101d0:	00100093          	li	ra,1
   101d4:	00700113          	li	sp,7
   101d8:	00209733          	sll	a4,ra,sp
   101dc:	08000393          	li	t2,128
   101e0:	50771663          	bne	a4,t2,106ec <fail>

000101e4 <test_5>:
   101e4:	00500193          	li	gp,5
   101e8:	00100093          	li	ra,1
   101ec:	00e00113          	li	sp,14
   101f0:	00209733          	sll	a4,ra,sp
   101f4:	000043b7          	lui	t2,0x4
   101f8:	4e771a63          	bne	a4,t2,106ec <fail>

000101fc <test_6>:
   101fc:	00600193          	li	gp,6
   10200:	00100093          	li	ra,1
   10204:	01f00113          	li	sp,31
   10208:	00209733          	sll	a4,ra,sp
   1020c:	800003b7          	lui	t2,0x80000
   10210:	4c771e63          	bne	a4,t2,106ec <fail>

00010214 <test_7>:
   10214:	00700193          	li	gp,7
   10218:	fff00093          	li	ra,-1
   1021c:	00000113          	li	sp,0
   10220:	00209733          	sll	a4,ra,sp
   10224:	fff00393          	li	t2,-1
   10228:	4c771263          	bne	a4,t2,106ec <fail>

0001022c <test_8>:
   1022c:	00800193          	li	gp,8
   10230:	fff00093          	li	ra,-1
   10234:	00100113          	li	sp,1
   10238:	00209733          	sll	a4,ra,sp
   1023c:	ffe00393          	li	t2,-2
   10240:	4a771663          	bne	a4,t2,106ec <fail>

00010244 <test_9>:
   10244:	00900193          	li	gp,9
   10248:	fff00093          	li	ra,-1
   1024c:	00700113          	li	sp,7
   10250:	00209733          	sll	a4,ra,sp
   10254:	f8000393          	li	t2,-128
   10258:	48771a63          	bne	a4,t2,106ec <fail>

0001025c <test_10>:
   1025c:	00a00193          	li	gp,10
   10260:	fff00093          	li	ra,-1
   10264:	00e00113          	li	sp,14
   10268:	00209733          	sll	a4,ra,sp
   1026c:	ffffc3b7          	lui	t2,0xffffc
   10270:	46771e63          	bne	a4,t2,106ec <fail>

00010274 <test_11>:
   10274:	00b00193          	li	gp,11
   10278:	fff00093          	li	ra,-1
   1027c:	01f00113          	li	sp,31
   10280:	00209733          	sll	a4,ra,sp
   10284:	800003b7          	lui	t2,0x80000
   10288:	46771263          	bne	a4,t2,106ec <fail>

0001028c <test_12>:
   1028c:	00c00193          	li	gp,12
   10290:	212120b7          	lui	ra,0x21212
   10294:	12108093          	addi	ra,ra,289 # 21212121 <fromhost+0x21201961>
   10298:	00000113          	li	sp,0
   1029c:	00209733          	sll	a4,ra,sp
   102a0:	212123b7          	lui	t2,0x21212
   102a4:	12138393          	addi	t2,t2,289 # 21212121 <fromhost+0x21201961>
   102a8:	44771263          	bne	a4,t2,106ec <fail>

000102ac <test_13>:
   102ac:	00d00193          	li	gp,13
   102b0:	212120b7          	lui	ra,0x21212
   102b4:	12108093          	addi	ra,ra,289 # 21212121 <fromhost+0x21201961>
   102b8:	00100113          	li	sp,1
   102bc:	00209733          	sll	a4,ra,sp
   102c0:	424243b7          	lui	t2,0x42424
   102c4:	24238393          	addi	t2,t2,578 # 42424242 <fromhost+0x42413a82>
   102c8:	42771263          	bne	a4,t2,106ec <fail>

000102cc <test_14>:
   102cc:	00e00193          	li	gp,14
   102d0:	212120b7          	lui	ra,0x21212
   102d4:	12108093          	addi	ra,ra,289 # 21212121 <fromhost+0x21201961>
   102d8:	00700113          	li	sp,7
   102dc:	00209733          	sll	a4,ra,sp
   102e0:	909093b7          	lui	t2,0x90909
   102e4:	08038393          	addi	t2,t2,128 # 90909080 <fromhost+0x908f88c0>
   102e8:	40771263          	bne	a4,t2,106ec <fail>

000102ec <test_15>:
   102ec:	00f00193          	li	gp,15
   102f0:	212120b7          	lui	ra,0x21212
   102f4:	12108093          	addi	ra,ra,289 # 21212121 <fromhost+0x21201961>
   102f8:	00e00113          	li	sp,14
   102fc:	00209733          	sll	a4,ra,sp
   10300:	484843b7          	lui	t2,0x48484
   10304:	3e771463          	bne	a4,t2,106ec <fail>

00010308 <test_16>:
   10308:	01000193          	li	gp,16
   1030c:	212120b7          	lui	ra,0x21212
   10310:	12108093          	addi	ra,ra,289 # 21212121 <fromhost+0x21201961>
   10314:	01f00113          	li	sp,31
   10318:	00209733          	sll	a4,ra,sp
   1031c:	800003b7          	lui	t2,0x80000
   10320:	3c771663          	bne	a4,t2,106ec <fail>

00010324 <test_17>:
   10324:	01100193          	li	gp,17
   10328:	212120b7          	lui	ra,0x21212
   1032c:	12108093          	addi	ra,ra,289 # 21212121 <fromhost+0x21201961>
   10330:	fc000113          	li	sp,-64
   10334:	00209733          	sll	a4,ra,sp
   10338:	212123b7          	lui	t2,0x21212
   1033c:	12138393          	addi	t2,t2,289 # 21212121 <fromhost+0x21201961>
   10340:	3a771663          	bne	a4,t2,106ec <fail>

00010344 <test_18>:
   10344:	01200193          	li	gp,18
   10348:	212120b7          	lui	ra,0x21212
   1034c:	12108093          	addi	ra,ra,289 # 21212121 <fromhost+0x21201961>
   10350:	fc100113          	li	sp,-63
   10354:	00209733          	sll	a4,ra,sp
   10358:	424243b7          	lui	t2,0x42424
   1035c:	24238393          	addi	t2,t2,578 # 42424242 <fromhost+0x42413a82>
   10360:	38771663          	bne	a4,t2,106ec <fail>

00010364 <test_19>:
   10364:	01300193          	li	gp,19
   10368:	212120b7          	lui	ra,0x21212
   1036c:	12108093          	addi	ra,ra,289 # 21212121 <fromhost+0x21201961>
   10370:	fc700113          	li	sp,-57
   10374:	00209733          	sll	a4,ra,sp
   10378:	909093b7          	lui	t2,0x90909
   1037c:	08038393          	addi	t2,t2,128 # 90909080 <fromhost+0x908f88c0>
   10380:	36771663          	bne	a4,t2,106ec <fail>

00010384 <test_20>:
   10384:	01400193          	li	gp,20
   10388:	212120b7          	lui	ra,0x21212
   1038c:	12108093          	addi	ra,ra,289 # 21212121 <fromhost+0x21201961>
   10390:	fce00113          	li	sp,-50
   10394:	00209733          	sll	a4,ra,sp
   10398:	484843b7          	lui	t2,0x48484
   1039c:	34771863          	bne	a4,t2,106ec <fail>

000103a0 <test_22>:
   103a0:	01600193          	li	gp,22
   103a4:	00100093          	li	ra,1
   103a8:	00700113          	li	sp,7
   103ac:	002090b3          	sll	ra,ra,sp
   103b0:	08000393          	li	t2,128
   103b4:	32709c63          	bne	ra,t2,106ec <fail>

000103b8 <test_23>:
   103b8:	01700193          	li	gp,23
   103bc:	00100093          	li	ra,1
   103c0:	00e00113          	li	sp,14
   103c4:	00209133          	sll	sp,ra,sp
   103c8:	000043b7          	lui	t2,0x4
   103cc:	32711063          	bne	sp,t2,106ec <fail>

000103d0 <test_24>:
   103d0:	01800193          	li	gp,24
   103d4:	00300093          	li	ra,3
   103d8:	001090b3          	sll	ra,ra,ra
   103dc:	01800393          	li	t2,24
   103e0:	30709663          	bne	ra,t2,106ec <fail>

000103e4 <test_25>:
   103e4:	01900193          	li	gp,25
   103e8:	00000213          	li	tp,0
   103ec:	00100093          	li	ra,1
   103f0:	00700113          	li	sp,7
   103f4:	00209733          	sll	a4,ra,sp
   103f8:	00070313          	mv	t1,a4
   103fc:	00120213          	addi	tp,tp,1 # 1 <_start-0xffff>
   10400:	00200293          	li	t0,2
   10404:	fe5214e3          	bne	tp,t0,103ec <test_25+0x8>
   10408:	08000393          	li	t2,128
   1040c:	2e731063          	bne	t1,t2,106ec <fail>

00010410 <test_26>:
   10410:	01a00193          	li	gp,26
   10414:	00000213          	li	tp,0
   10418:	00100093          	li	ra,1
   1041c:	00e00113          	li	sp,14
   10420:	00209733          	sll	a4,ra,sp
   10424:	00000013          	nop
   10428:	00070313          	mv	t1,a4
   1042c:	00120213          	addi	tp,tp,1 # 1 <_start-0xffff>
   10430:	00200293          	li	t0,2
   10434:	fe5212e3          	bne	tp,t0,10418 <test_26+0x8>
   10438:	000043b7          	lui	t2,0x4
   1043c:	2a731863          	bne	t1,t2,106ec <fail>

00010440 <test_27>:
   10440:	01b00193          	li	gp,27
   10444:	00000213          	li	tp,0
   10448:	00100093          	li	ra,1
   1044c:	01f00113          	li	sp,31
   10450:	00209733          	sll	a4,ra,sp
   10454:	00000013          	nop
   10458:	00000013          	nop
   1045c:	00070313          	mv	t1,a4
   10460:	00120213          	addi	tp,tp,1 # 1 <_start-0xffff>
   10464:	00200293          	li	t0,2
   10468:	fe5210e3          	bne	tp,t0,10448 <test_27+0x8>
   1046c:	800003b7          	lui	t2,0x80000
   10470:	26731e63          	bne	t1,t2,106ec <fail>

00010474 <test_28>:
   10474:	01c00193          	li	gp,28
   10478:	00000213          	li	tp,0
   1047c:	00100093          	li	ra,1
   10480:	00700113          	li	sp,7
   10484:	00209733          	sll	a4,ra,sp
   10488:	00120213          	addi	tp,tp,1 # 1 <_start-0xffff>
   1048c:	00200293          	li	t0,2
   10490:	fe5216e3          	bne	tp,t0,1047c <test_28+0x8>
   10494:	08000393          	li	t2,128
   10498:	24771a63          	bne	a4,t2,106ec <fail>

0001049c <test_29>:
   1049c:	01d00193          	li	gp,29
   104a0:	00000213          	li	tp,0
   104a4:	00100093          	li	ra,1
   104a8:	00e00113          	li	sp,14
   104ac:	00000013          	nop
   104b0:	00209733          	sll	a4,ra,sp
   104b4:	00120213          	addi	tp,tp,1 # 1 <_start-0xffff>
   104b8:	00200293          	li	t0,2
   104bc:	fe5214e3          	bne	tp,t0,104a4 <test_29+0x8>
   104c0:	000043b7          	lui	t2,0x4
   104c4:	22771463          	bne	a4,t2,106ec <fail>

000104c8 <test_30>:
   104c8:	01e00193          	li	gp,30
   104cc:	00000213          	li	tp,0
   104d0:	00100093          	li	ra,1
   104d4:	01f00113          	li	sp,31
   104d8:	00000013          	nop
   104dc:	00000013          	nop
   104e0:	00209733          	sll	a4,ra,sp
   104e4:	00120213          	addi	tp,tp,1 # 1 <_start-0xffff>
   104e8:	00200293          	li	t0,2
   104ec:	fe5212e3          	bne	tp,t0,104d0 <test_30+0x8>
   104f0:	800003b7          	lui	t2,0x80000
   104f4:	1e771c63          	bne	a4,t2,106ec <fail>

000104f8 <test_31>:
   104f8:	01f00193          	li	gp,31
   104fc:	00000213          	li	tp,0
   10500:	00100093          	li	ra,1
   10504:	00000013          	nop
   10508:	00700113          	li	sp,7
   1050c:	00209733          	sll	a4,ra,sp
   10510:	00120213          	addi	tp,tp,1 # 1 <_start-0xffff>
   10514:	00200293          	li	t0,2
   10518:	fe5214e3          	bne	tp,t0,10500 <test_31+0x8>
   1051c:	08000393          	li	t2,128
   10520:	1c771663          	bne	a4,t2,106ec <fail>

00010524 <test_32>:
   10524:	02000193          	li	gp,32
   10528:	00000213          	li	tp,0
   1052c:	00100093          	li	ra,1
   10530:	00000013          	nop
   10534:	00e00113          	li	sp,14
   10538:	00000013          	nop
   1053c:	00209733          	sll	a4,ra,sp
   10540:	00120213          	addi	tp,tp,1 # 1 <_start-0xffff>
   10544:	00200293          	li	t0,2
   10548:	fe5212e3          	bne	tp,t0,1052c <test_32+0x8>
   1054c:	000043b7          	lui	t2,0x4
   10550:	18771e63          	bne	a4,t2,106ec <fail>

00010554 <test_33>:
   10554:	02100193          	li	gp,33
   10558:	00000213          	li	tp,0
   1055c:	00100093          	li	ra,1
   10560:	00000013          	nop
   10564:	00000013          	nop
   10568:	01f00113          	li	sp,31
   1056c:	00209733          	sll	a4,ra,sp
   10570:	00120213          	addi	tp,tp,1 # 1 <_start-0xffff>
   10574:	00200293          	li	t0,2
   10578:	fe5212e3          	bne	tp,t0,1055c <test_33+0x8>
   1057c:	800003b7          	lui	t2,0x80000
   10580:	16771663          	bne	a4,t2,106ec <fail>

00010584 <test_34>:
   10584:	02200193          	li	gp,34
   10588:	00000213          	li	tp,0
   1058c:	00700113          	li	sp,7
   10590:	00100093          	li	ra,1
   10594:	00209733          	sll	a4,ra,sp
   10598:	00120213          	addi	tp,tp,1 # 1 <_start-0xffff>
   1059c:	00200293          	li	t0,2
   105a0:	fe5216e3          	bne	tp,t0,1058c <test_34+0x8>
   105a4:	08000393          	li	t2,128
   105a8:	14771263          	bne	a4,t2,106ec <fail>

000105ac <test_35>:
   105ac:	02300193          	li	gp,35
   105b0:	00000213          	li	tp,0
   105b4:	00e00113          	li	sp,14
   105b8:	00100093          	li	ra,1
   105bc:	00000013          	nop
   105c0:	00209733          	sll	a4,ra,sp
   105c4:	00120213          	addi	tp,tp,1 # 1 <_start-0xffff>
   105c8:	00200293          	li	t0,2
   105cc:	fe5214e3          	bne	tp,t0,105b4 <test_35+0x8>
   105d0:	000043b7          	lui	t2,0x4
   105d4:	10771c63          	bne	a4,t2,106ec <fail>

000105d8 <test_36>:
   105d8:	02400193          	li	gp,36
   105dc:	00000213          	li	tp,0
   105e0:	01f00113          	li	sp,31
   105e4:	00100093          	li	ra,1
   105e8:	00000013          	nop
   105ec:	00000013          	nop
   105f0:	00209733          	sll	a4,ra,sp
   105f4:	00120213          	addi	tp,tp,1 # 1 <_start-0xffff>
   105f8:	00200293          	li	t0,2
   105fc:	fe5212e3          	bne	tp,t0,105e0 <test_36+0x8>
   10600:	800003b7          	lui	t2,0x80000
   10604:	0e771463          	bne	a4,t2,106ec <fail>

00010608 <test_37>:
   10608:	02500193          	li	gp,37
   1060c:	00000213          	li	tp,0
   10610:	00700113          	li	sp,7
   10614:	00000013          	nop
   10618:	00100093          	li	ra,1
   1061c:	00209733          	sll	a4,ra,sp
   10620:	00120213          	addi	tp,tp,1 # 1 <_start-0xffff>
   10624:	00200293          	li	t0,2
   10628:	fe5214e3          	bne	tp,t0,10610 <test_37+0x8>
   1062c:	08000393          	li	t2,128
   10630:	0a771e63          	bne	a4,t2,106ec <fail>

00010634 <test_38>:
   10634:	02600193          	li	gp,38
   10638:	00000213          	li	tp,0
   1063c:	00e00113          	li	sp,14
   10640:	00000013          	nop
   10644:	00100093          	li	ra,1
   10648:	00000013          	nop
   1064c:	00209733          	sll	a4,ra,sp
   10650:	00120213          	addi	tp,tp,1 # 1 <_start-0xffff>
   10654:	00200293          	li	t0,2
   10658:	fe5212e3          	bne	tp,t0,1063c <test_38+0x8>
   1065c:	000043b7          	lui	t2,0x4
   10660:	08771663          	bne	a4,t2,106ec <fail>

00010664 <test_39>:
   10664:	02700193          	li	gp,39
   10668:	00000213          	li	tp,0
   1066c:	01f00113          	li	sp,31
   10670:	00000013          	nop
   10674:	00000013          	nop
   10678:	00100093          	li	ra,1
   1067c:	00209733          	sll	a4,ra,sp
   10680:	00120213          	addi	tp,tp,1 # 1 <_start-0xffff>
   10684:	00200293          	li	t0,2
   10688:	fe5212e3          	bne	tp,t0,1066c <test_39+0x8>
   1068c:	800003b7          	lui	t2,0x80000
   10690:	04771e63          	bne	a4,t2,106ec <fail>

00010694 <test_40>:
   10694:	02800193          	li	gp,40
   10698:	00f00093          	li	ra,15
   1069c:	00101133          	sll	sp,zero,ra
   106a0:	00000393          	li	t2,0
   106a4:	04711463          	bne	sp,t2,106ec <fail>

000106a8 <test_41>:
   106a8:	02900193          	li	gp,41
   106ac:	02000093          	li	ra,32
   106b0:	00009133          	sll	sp,ra,zero
   106b4:	02000393          	li	t2,32
   106b8:	02711a63          	bne	sp,t2,106ec <fail>

000106bc <test_42>:
   106bc:	02a00193          	li	gp,42
   106c0:	000010b3          	sll	ra,zero,zero
   106c4:	00000393          	li	t2,0
   106c8:	02709263          	bne	ra,t2,106ec <fail>

000106cc <test_43>:
   106cc:	02b00193          	li	gp,43
   106d0:	40000093          	li	ra,1024
   106d4:	00001137          	lui	sp,0x1
   106d8:	80010113          	addi	sp,sp,-2048 # 800 <_start-0xf800>
   106dc:	00209033          	sll	zero,ra,sp
   106e0:	00000393          	li	t2,0
   106e4:	00701463          	bne	zero,t2,106ec <fail>
   106e8:	02301863          	bne	zero,gp,10718 <pass>

000106ec <fail>:
   106ec:	0ff0000f          	fence
   106f0:	00018063          	beqz	gp,106f0 <fail+0x4>
   106f4:	00119193          	slli	gp,gp,0x1
   106f8:	0011e193          	ori	gp,gp,1
   106fc:	05d00893          	li	a7,93
   10700:	00018513          	mv	a0,gp
   10704:	00100593          	li	a1,1
   10708:	00c59593          	slli	a1,a1,0xc
   1070c:	00358023          	sb	gp,0(a1)
   10710:	8f1ff06f          	j	10000 <_start>
   10714:	00000073          	ecall

00010718 <pass>:
   10718:	0ff0000f          	fence
   1071c:	00100193          	li	gp,1
   10720:	05d00893          	li	a7,93
   10724:	00000513          	li	a0,0
   10728:	00100593          	li	a1,1
   1072c:	00c59593          	slli	a1,a1,0xc
   10730:	00358023          	sb	gp,0(a1)
   10734:	8cdff06f          	j	10000 <_start>
   10738:	00000073          	ecall
   1073c:	c0001073          	unimp
   10740:	0000                	.insn	2, 0x
   10742:	0000                	.insn	2, 0x
   10744:	0000                	.insn	2, 0x
   10746:	0000                	.insn	2, 0x
   10748:	0000                	.insn	2, 0x
   1074a:	0000                	.insn	2, 0x
   1074c:	0000                	.insn	2, 0x
   1074e:	0000                	.insn	2, 0x
   10750:	0000                	.insn	2, 0x
   10752:	0000                	.insn	2, 0x
   10754:	0000                	.insn	2, 0x
   10756:	0000                	.insn	2, 0x
   10758:	0000                	.insn	2, 0x
   1075a:	0000                	.insn	2, 0x
   1075c:	0000                	.insn	2, 0x
   1075e:	0000                	.insn	2, 0x
   10760:	0000                	.insn	2, 0x
   10762:	0000                	.insn	2, 0x
   10764:	0000                	.insn	2, 0x
   10766:	0000                	.insn	2, 0x
   10768:	0000                	.insn	2, 0x
   1076a:	0000                	.insn	2, 0x
   1076c:	0000                	.insn	2, 0x
   1076e:	0000                	.insn	2, 0x
   10770:	0000                	.insn	2, 0x
   10772:	0000                	.insn	2, 0x
   10774:	0000                	.insn	2, 0x
   10776:	0000                	.insn	2, 0x
   10778:	0000                	.insn	2, 0x
   1077a:	0000                	.insn	2, 0x
   1077c:	0000                	.insn	2, 0x
   1077e:	0000                	.insn	2, 0x
