
rv32ui-p-addi:     file format elf32-littleriscv


Disassembly of section .text:

00010000 <_start>:
   10000:	0500006f          	j	10050 <reset_vector>

00010004 <trap_vector>:
   10004:	34202f73          	csrr	t5,mcause
   10008:	00800f93          	li	t6,8
   1000c:	03ff0863          	beq	t5,t6,1003c <write_tohost>
   10010:	00900f93          	li	t6,9
   10014:	03ff0463          	beq	t5,t6,1003c <write_tohost>
   10018:	00b00f93          	li	t6,11
   1001c:	03ff0063          	beq	t5,t6,1003c <write_tohost>
   10020:	00000f13          	li	t5,0
   10024:	000f0463          	beqz	t5,1002c <trap_vector+0x28>
   10028:	000f0067          	jr	t5
   1002c:	34202f73          	csrr	t5,mcause
   10030:	000f5463          	bgez	t5,10038 <handle_exception>
   10034:	0040006f          	j	10038 <handle_exception>

00010038 <handle_exception>:
   10038:	5391e193          	ori	gp,gp,1337

0001003c <write_tohost>:
   1003c:	00000f17          	auipc	t5,0x0
   10040:	443f2223          	sw	gp,1092(t5) # 10480 <_end>
   10044:	00000f17          	auipc	t5,0x0
   10048:	440f2023          	sw	zero,1088(t5) # 10484 <_end+0x4>
   1004c:	ff1ff06f          	j	1003c <write_tohost>

00010050 <reset_vector>:
   10050:	00000093          	li	ra,0
   10054:	00000113          	li	sp,0
   10058:	00000193          	li	gp,0
   1005c:	00000213          	li	tp,0
   10060:	00000293          	li	t0,0
   10064:	00000313          	li	t1,0
   10068:	00000393          	li	t2,0
   1006c:	00000413          	li	s0,0
   10070:	00000493          	li	s1,0
   10074:	00000513          	li	a0,0
   10078:	00000593          	li	a1,0
   1007c:	00000613          	li	a2,0
   10080:	00000693          	li	a3,0
   10084:	00000713          	li	a4,0
   10088:	00000793          	li	a5,0
   1008c:	00000813          	li	a6,0
   10090:	00000893          	li	a7,0
   10094:	00000913          	li	s2,0
   10098:	00000993          	li	s3,0
   1009c:	00000a13          	li	s4,0
   100a0:	00000a93          	li	s5,0
   100a4:	00000b13          	li	s6,0
   100a8:	00000b93          	li	s7,0
   100ac:	00000c13          	li	s8,0
   100b0:	00000c93          	li	s9,0
   100b4:	00000d13          	li	s10,0
   100b8:	00000d93          	li	s11,0
   100bc:	00000e13          	li	t3,0
   100c0:	00000e93          	li	t4,0
   100c4:	00000f13          	li	t5,0
   100c8:	00000f93          	li	t6,0
   100cc:	f1402573          	csrr	a0,mhartid
   100d0:	00051063          	bnez	a0,100d0 <reset_vector+0x80>
   100d4:	00000297          	auipc	t0,0x0
   100d8:	01028293          	addi	t0,t0,16 # 100e4 <reset_vector+0x94>
   100dc:	30529073          	csrw	mtvec,t0
   100e0:	74445073          	csrwi	0x744,8
   100e4:	00000297          	auipc	t0,0x0
   100e8:	01028293          	addi	t0,t0,16 # 100f4 <reset_vector+0xa4>
   100ec:	30529073          	csrw	mtvec,t0
   100f0:	18005073          	csrwi	satp,0
   100f4:	00000297          	auipc	t0,0x0
   100f8:	02028293          	addi	t0,t0,32 # 10114 <reset_vector+0xc4>
   100fc:	30529073          	csrw	mtvec,t0
   10100:	800002b7          	lui	t0,0x80000
   10104:	fff28293          	addi	t0,t0,-1 # 7fffffff <fromhost+0x7ffefb3f>
   10108:	3b029073          	csrw	pmpaddr0,t0
   1010c:	01f00293          	li	t0,31
   10110:	3a029073          	csrw	pmpcfg0,t0
   10114:	30405073          	csrwi	mie,0
   10118:	00000297          	auipc	t0,0x0
   1011c:	01428293          	addi	t0,t0,20 # 1012c <reset_vector+0xdc>
   10120:	30529073          	csrw	mtvec,t0
   10124:	30205073          	csrwi	medeleg,0
   10128:	30305073          	csrwi	mideleg,0
   1012c:	00000193          	li	gp,0
   10130:	00000297          	auipc	t0,0x0
   10134:	ed428293          	addi	t0,t0,-300 # 10004 <trap_vector>
   10138:	30529073          	csrw	mtvec,t0
   1013c:	00100513          	li	a0,1
   10140:	01f51513          	slli	a0,a0,0x1f
   10144:	02054463          	bltz	a0,1016c <reset_vector+0x11c>
   10148:	0ff0000f          	fence
   1014c:	00100193          	li	gp,1
   10150:	05d00893          	li	a7,93
   10154:	00000513          	li	a0,0
   10158:	00100593          	li	a1,1
   1015c:	00c59593          	slli	a1,a1,0xc
   10160:	00358023          	sb	gp,0(a1)
   10164:	e9dff06f          	j	10000 <_start>
   10168:	00000073          	ecall
   1016c:	00000293          	li	t0,0
   10170:	00028a63          	beqz	t0,10184 <reset_vector+0x134>
   10174:	10529073          	csrw	stvec,t0
   10178:	0000b2b7          	lui	t0,0xb
   1017c:	10928293          	addi	t0,t0,265 # b109 <_start-0x4ef7>
   10180:	30229073          	csrw	medeleg,t0
   10184:	30005073          	csrwi	mstatus,0
   10188:	00000297          	auipc	t0,0x0
   1018c:	01428293          	addi	t0,t0,20 # 1019c <test_2>
   10190:	34129073          	csrw	mepc,t0
   10194:	f1402573          	csrr	a0,mhartid
   10198:	30200073          	mret

0001019c <test_2>:
   1019c:	00200193          	li	gp,2
   101a0:	00000093          	li	ra,0
   101a4:	00008713          	mv	a4,ra
   101a8:	00000393          	li	t2,0
   101ac:	26771c63          	bne	a4,t2,10424 <fail>

000101b0 <test_3>:
   101b0:	00300193          	li	gp,3
   101b4:	00100093          	li	ra,1
   101b8:	00108713          	addi	a4,ra,1
   101bc:	00200393          	li	t2,2
   101c0:	26771263          	bne	a4,t2,10424 <fail>

000101c4 <test_4>:
   101c4:	00400193          	li	gp,4
   101c8:	00300093          	li	ra,3
   101cc:	00708713          	addi	a4,ra,7
   101d0:	00a00393          	li	t2,10
   101d4:	24771863          	bne	a4,t2,10424 <fail>

000101d8 <test_5>:
   101d8:	00500193          	li	gp,5
   101dc:	00000093          	li	ra,0
   101e0:	80008713          	addi	a4,ra,-2048
   101e4:	80000393          	li	t2,-2048
   101e8:	22771e63          	bne	a4,t2,10424 <fail>

000101ec <test_6>:
   101ec:	00600193          	li	gp,6
   101f0:	800000b7          	lui	ra,0x80000
   101f4:	00008713          	mv	a4,ra
   101f8:	800003b7          	lui	t2,0x80000
   101fc:	22771463          	bne	a4,t2,10424 <fail>

00010200 <test_7>:
   10200:	00700193          	li	gp,7
   10204:	800000b7          	lui	ra,0x80000
   10208:	80008713          	addi	a4,ra,-2048 # 7ffff800 <fromhost+0x7ffef340>
   1020c:	800003b7          	lui	t2,0x80000
   10210:	80038393          	addi	t2,t2,-2048 # 7ffff800 <fromhost+0x7ffef340>
   10214:	20771863          	bne	a4,t2,10424 <fail>

00010218 <test_8>:
   10218:	00800193          	li	gp,8
   1021c:	00000093          	li	ra,0
   10220:	7ff08713          	addi	a4,ra,2047
   10224:	7ff00393          	li	t2,2047
   10228:	1e771e63          	bne	a4,t2,10424 <fail>

0001022c <test_9>:
   1022c:	00900193          	li	gp,9
   10230:	800000b7          	lui	ra,0x80000
   10234:	fff08093          	addi	ra,ra,-1 # 7fffffff <fromhost+0x7ffefb3f>
   10238:	00008713          	mv	a4,ra
   1023c:	800003b7          	lui	t2,0x80000
   10240:	fff38393          	addi	t2,t2,-1 # 7fffffff <fromhost+0x7ffefb3f>
   10244:	1e771063          	bne	a4,t2,10424 <fail>

00010248 <test_10>:
   10248:	00a00193          	li	gp,10
   1024c:	800000b7          	lui	ra,0x80000
   10250:	fff08093          	addi	ra,ra,-1 # 7fffffff <fromhost+0x7ffefb3f>
   10254:	7ff08713          	addi	a4,ra,2047
   10258:	800003b7          	lui	t2,0x80000
   1025c:	7fe38393          	addi	t2,t2,2046 # 800007fe <fromhost+0x7fff033e>
   10260:	1c771263          	bne	a4,t2,10424 <fail>

00010264 <test_11>:
   10264:	00b00193          	li	gp,11
   10268:	800000b7          	lui	ra,0x80000
   1026c:	7ff08713          	addi	a4,ra,2047 # 800007ff <fromhost+0x7fff033f>
   10270:	800003b7          	lui	t2,0x80000
   10274:	7ff38393          	addi	t2,t2,2047 # 800007ff <fromhost+0x7fff033f>
   10278:	1a771663          	bne	a4,t2,10424 <fail>

0001027c <test_12>:
   1027c:	00c00193          	li	gp,12
   10280:	800000b7          	lui	ra,0x80000
   10284:	fff08093          	addi	ra,ra,-1 # 7fffffff <fromhost+0x7ffefb3f>
   10288:	80008713          	addi	a4,ra,-2048
   1028c:	7ffff3b7          	lui	t2,0x7ffff
   10290:	7ff38393          	addi	t2,t2,2047 # 7ffff7ff <fromhost+0x7ffef33f>
   10294:	18771863          	bne	a4,t2,10424 <fail>

00010298 <test_13>:
   10298:	00d00193          	li	gp,13
   1029c:	00000093          	li	ra,0
   102a0:	fff08713          	addi	a4,ra,-1
   102a4:	fff00393          	li	t2,-1
   102a8:	16771e63          	bne	a4,t2,10424 <fail>

000102ac <test_14>:
   102ac:	00e00193          	li	gp,14
   102b0:	fff00093          	li	ra,-1
   102b4:	00108713          	addi	a4,ra,1
   102b8:	00000393          	li	t2,0
   102bc:	16771463          	bne	a4,t2,10424 <fail>

000102c0 <test_15>:
   102c0:	00f00193          	li	gp,15
   102c4:	fff00093          	li	ra,-1
   102c8:	fff08713          	addi	a4,ra,-1
   102cc:	ffe00393          	li	t2,-2
   102d0:	14771a63          	bne	a4,t2,10424 <fail>

000102d4 <test_16>:
   102d4:	01000193          	li	gp,16
   102d8:	800000b7          	lui	ra,0x80000
   102dc:	fff08093          	addi	ra,ra,-1 # 7fffffff <fromhost+0x7ffefb3f>
   102e0:	00108713          	addi	a4,ra,1
   102e4:	800003b7          	lui	t2,0x80000
   102e8:	12771e63          	bne	a4,t2,10424 <fail>

000102ec <test_17>:
   102ec:	01100193          	li	gp,17
   102f0:	00d00093          	li	ra,13
   102f4:	00b08093          	addi	ra,ra,11
   102f8:	01800393          	li	t2,24
   102fc:	12709463          	bne	ra,t2,10424 <fail>

00010300 <test_18>:
   10300:	01200193          	li	gp,18
   10304:	00000213          	li	tp,0
   10308:	00d00093          	li	ra,13
   1030c:	00b08713          	addi	a4,ra,11
   10310:	00070313          	mv	t1,a4
   10314:	00120213          	addi	tp,tp,1 # 1 <_start-0xffff>
   10318:	00200293          	li	t0,2
   1031c:	fe5216e3          	bne	tp,t0,10308 <test_18+0x8>
   10320:	01800393          	li	t2,24
   10324:	10731063          	bne	t1,t2,10424 <fail>

00010328 <test_19>:
   10328:	01300193          	li	gp,19
   1032c:	00000213          	li	tp,0
   10330:	00d00093          	li	ra,13
   10334:	00a08713          	addi	a4,ra,10
   10338:	00000013          	nop
   1033c:	00070313          	mv	t1,a4
   10340:	00120213          	addi	tp,tp,1 # 1 <_start-0xffff>
   10344:	00200293          	li	t0,2
   10348:	fe5214e3          	bne	tp,t0,10330 <test_19+0x8>
   1034c:	01700393          	li	t2,23
   10350:	0c731a63          	bne	t1,t2,10424 <fail>

00010354 <test_20>:
   10354:	01400193          	li	gp,20
   10358:	00000213          	li	tp,0
   1035c:	00d00093          	li	ra,13
   10360:	00908713          	addi	a4,ra,9
   10364:	00000013          	nop
   10368:	00000013          	nop
   1036c:	00070313          	mv	t1,a4
   10370:	00120213          	addi	tp,tp,1 # 1 <_start-0xffff>
   10374:	00200293          	li	t0,2
   10378:	fe5212e3          	bne	tp,t0,1035c <test_20+0x8>
   1037c:	01600393          	li	t2,22
   10380:	0a731263          	bne	t1,t2,10424 <fail>

00010384 <test_21>:
   10384:	01500193          	li	gp,21
   10388:	00000213          	li	tp,0
   1038c:	00d00093          	li	ra,13
   10390:	00b08713          	addi	a4,ra,11
   10394:	00120213          	addi	tp,tp,1 # 1 <_start-0xffff>
   10398:	00200293          	li	t0,2
   1039c:	fe5218e3          	bne	tp,t0,1038c <test_21+0x8>
   103a0:	01800393          	li	t2,24
   103a4:	08771063          	bne	a4,t2,10424 <fail>

000103a8 <test_22>:
   103a8:	01600193          	li	gp,22
   103ac:	00000213          	li	tp,0
   103b0:	00d00093          	li	ra,13
   103b4:	00000013          	nop
   103b8:	00a08713          	addi	a4,ra,10
   103bc:	00120213          	addi	tp,tp,1 # 1 <_start-0xffff>
   103c0:	00200293          	li	t0,2
   103c4:	fe5216e3          	bne	tp,t0,103b0 <test_22+0x8>
   103c8:	01700393          	li	t2,23
   103cc:	04771c63          	bne	a4,t2,10424 <fail>

000103d0 <test_23>:
   103d0:	01700193          	li	gp,23
   103d4:	00000213          	li	tp,0
   103d8:	00d00093          	li	ra,13
   103dc:	00000013          	nop
   103e0:	00000013          	nop
   103e4:	00908713          	addi	a4,ra,9
   103e8:	00120213          	addi	tp,tp,1 # 1 <_start-0xffff>
   103ec:	00200293          	li	t0,2
   103f0:	fe5214e3          	bne	tp,t0,103d8 <test_23+0x8>
   103f4:	01600393          	li	t2,22
   103f8:	02771663          	bne	a4,t2,10424 <fail>

000103fc <test_24>:
   103fc:	01800193          	li	gp,24
   10400:	02000093          	li	ra,32
   10404:	02000393          	li	t2,32
   10408:	00709e63          	bne	ra,t2,10424 <fail>

0001040c <test_25>:
   1040c:	01900193          	li	gp,25
   10410:	02100093          	li	ra,33
   10414:	03208013          	addi	zero,ra,50
   10418:	00000393          	li	t2,0
   1041c:	00701463          	bne	zero,t2,10424 <fail>
   10420:	02301863          	bne	zero,gp,10450 <pass>

00010424 <fail>:
   10424:	0ff0000f          	fence
   10428:	00018063          	beqz	gp,10428 <fail+0x4>
   1042c:	00119193          	slli	gp,gp,0x1
   10430:	0011e193          	ori	gp,gp,1
   10434:	05d00893          	li	a7,93
   10438:	00018513          	mv	a0,gp
   1043c:	00100593          	li	a1,1
   10440:	00c59593          	slli	a1,a1,0xc
   10444:	00358023          	sb	gp,0(a1)
   10448:	bb9ff06f          	j	10000 <_start>
   1044c:	00000073          	ecall

00010450 <pass>:
   10450:	0ff0000f          	fence
   10454:	00100193          	li	gp,1
   10458:	05d00893          	li	a7,93
   1045c:	00000513          	li	a0,0
   10460:	00100593          	li	a1,1
   10464:	00c59593          	slli	a1,a1,0xc
   10468:	00358023          	sb	gp,0(a1)
   1046c:	b95ff06f          	j	10000 <_start>
   10470:	00000073          	ecall
   10474:	c0001073          	unimp
   10478:	0000                	.insn	2, 0x
   1047a:	0000                	.insn	2, 0x
   1047c:	0000                	.insn	2, 0x
   1047e:	0000                	.insn	2, 0x
