
rv32ui-p-srl:     file format elf32-littleriscv


Disassembly of section .text:

00010000 <_start>:
   10000:	0500006f          	j	10050 <reset_vector>

00010004 <trap_vector>:
   10004:	34202f73          	csrr	t5,mcause
   10008:	00800f93          	li	t6,8
   1000c:	03ff0863          	beq	t5,t6,1003c <write_tohost>
   10010:	00900f93          	li	t6,9
   10014:	03ff0463          	beq	t5,t6,1003c <write_tohost>
   10018:	00b00f93          	li	t6,11
   1001c:	03ff0063          	beq	t5,t6,1003c <write_tohost>
   10020:	00000f13          	li	t5,0
   10024:	000f0463          	beqz	t5,1002c <trap_vector+0x28>
   10028:	000f0067          	jr	t5
   1002c:	34202f73          	csrr	t5,mcause
   10030:	000f5463          	bgez	t5,10038 <handle_exception>
   10034:	0040006f          	j	10038 <handle_exception>

00010038 <handle_exception>:
   10038:	5391e193          	ori	gp,gp,1337

0001003c <write_tohost>:
   1003c:	00000f17          	auipc	t5,0x0
   10040:	743f2223          	sw	gp,1860(t5) # 10780 <_end>
   10044:	00000f17          	auipc	t5,0x0
   10048:	740f2023          	sw	zero,1856(t5) # 10784 <_end+0x4>
   1004c:	ff1ff06f          	j	1003c <write_tohost>

00010050 <reset_vector>:
   10050:	00000093          	li	ra,0
   10054:	00000113          	li	sp,0
   10058:	00000193          	li	gp,0
   1005c:	00000213          	li	tp,0
   10060:	00000293          	li	t0,0
   10064:	00000313          	li	t1,0
   10068:	00000393          	li	t2,0
   1006c:	00000413          	li	s0,0
   10070:	00000493          	li	s1,0
   10074:	00000513          	li	a0,0
   10078:	00000593          	li	a1,0
   1007c:	00000613          	li	a2,0
   10080:	00000693          	li	a3,0
   10084:	00000713          	li	a4,0
   10088:	00000793          	li	a5,0
   1008c:	00000813          	li	a6,0
   10090:	00000893          	li	a7,0
   10094:	00000913          	li	s2,0
   10098:	00000993          	li	s3,0
   1009c:	00000a13          	li	s4,0
   100a0:	00000a93          	li	s5,0
   100a4:	00000b13          	li	s6,0
   100a8:	00000b93          	li	s7,0
   100ac:	00000c13          	li	s8,0
   100b0:	00000c93          	li	s9,0
   100b4:	00000d13          	li	s10,0
   100b8:	00000d93          	li	s11,0
   100bc:	00000e13          	li	t3,0
   100c0:	00000e93          	li	t4,0
   100c4:	00000f13          	li	t5,0
   100c8:	00000f93          	li	t6,0
   100cc:	f1402573          	csrr	a0,mhartid
   100d0:	00051063          	bnez	a0,100d0 <reset_vector+0x80>
   100d4:	00000297          	auipc	t0,0x0
   100d8:	01028293          	addi	t0,t0,16 # 100e4 <reset_vector+0x94>
   100dc:	30529073          	csrw	mtvec,t0
   100e0:	74445073          	csrwi	0x744,8
   100e4:	00000297          	auipc	t0,0x0
   100e8:	01028293          	addi	t0,t0,16 # 100f4 <reset_vector+0xa4>
   100ec:	30529073          	csrw	mtvec,t0
   100f0:	18005073          	csrwi	satp,0
   100f4:	00000297          	auipc	t0,0x0
   100f8:	02028293          	addi	t0,t0,32 # 10114 <reset_vector+0xc4>
   100fc:	30529073          	csrw	mtvec,t0
   10100:	800002b7          	lui	t0,0x80000
   10104:	fff28293          	addi	t0,t0,-1 # 7fffffff <fromhost+0x7ffef83f>
   10108:	3b029073          	csrw	pmpaddr0,t0
   1010c:	01f00293          	li	t0,31
   10110:	3a029073          	csrw	pmpcfg0,t0
   10114:	30405073          	csrwi	mie,0
   10118:	00000297          	auipc	t0,0x0
   1011c:	01428293          	addi	t0,t0,20 # 1012c <reset_vector+0xdc>
   10120:	30529073          	csrw	mtvec,t0
   10124:	30205073          	csrwi	medeleg,0
   10128:	30305073          	csrwi	mideleg,0
   1012c:	00000193          	li	gp,0
   10130:	00000297          	auipc	t0,0x0
   10134:	ed428293          	addi	t0,t0,-300 # 10004 <trap_vector>
   10138:	30529073          	csrw	mtvec,t0
   1013c:	00100513          	li	a0,1
   10140:	01f51513          	slli	a0,a0,0x1f
   10144:	02054463          	bltz	a0,1016c <reset_vector+0x11c>
   10148:	0ff0000f          	fence
   1014c:	00100193          	li	gp,1
   10150:	05d00893          	li	a7,93
   10154:	00000513          	li	a0,0
   10158:	00100593          	li	a1,1
   1015c:	00c59593          	slli	a1,a1,0xc
   10160:	00358023          	sb	gp,0(a1)
   10164:	e9dff06f          	j	10000 <_start>
   10168:	00000073          	ecall
   1016c:	00000293          	li	t0,0
   10170:	00028a63          	beqz	t0,10184 <reset_vector+0x134>
   10174:	10529073          	csrw	stvec,t0
   10178:	0000b2b7          	lui	t0,0xb
   1017c:	10928293          	addi	t0,t0,265 # b109 <_start-0x4ef7>
   10180:	30229073          	csrw	medeleg,t0
   10184:	30005073          	csrwi	mstatus,0
   10188:	00000297          	auipc	t0,0x0
   1018c:	01428293          	addi	t0,t0,20 # 1019c <test_2>
   10190:	34129073          	csrw	mepc,t0
   10194:	f1402573          	csrr	a0,mhartid
   10198:	30200073          	mret

0001019c <test_2>:
   1019c:	00200193          	li	gp,2
   101a0:	800000b7          	lui	ra,0x80000
   101a4:	00000113          	li	sp,0
   101a8:	0020d733          	srl	a4,ra,sp
   101ac:	800003b7          	lui	t2,0x80000
   101b0:	56771863          	bne	a4,t2,10720 <fail>

000101b4 <test_3>:
   101b4:	00300193          	li	gp,3
   101b8:	800000b7          	lui	ra,0x80000
   101bc:	00100113          	li	sp,1
   101c0:	0020d733          	srl	a4,ra,sp
   101c4:	400003b7          	lui	t2,0x40000
   101c8:	54771c63          	bne	a4,t2,10720 <fail>

000101cc <test_4>:
   101cc:	00400193          	li	gp,4
   101d0:	800000b7          	lui	ra,0x80000
   101d4:	00700113          	li	sp,7
   101d8:	0020d733          	srl	a4,ra,sp
   101dc:	010003b7          	lui	t2,0x1000
   101e0:	54771063          	bne	a4,t2,10720 <fail>

000101e4 <test_5>:
   101e4:	00500193          	li	gp,5
   101e8:	800000b7          	lui	ra,0x80000
   101ec:	00e00113          	li	sp,14
   101f0:	0020d733          	srl	a4,ra,sp
   101f4:	000203b7          	lui	t2,0x20
   101f8:	52771463          	bne	a4,t2,10720 <fail>

000101fc <test_6>:
   101fc:	00600193          	li	gp,6
   10200:	800000b7          	lui	ra,0x80000
   10204:	00108093          	addi	ra,ra,1 # 80000001 <fromhost+0x7ffef841>
   10208:	01f00113          	li	sp,31
   1020c:	0020d733          	srl	a4,ra,sp
   10210:	00100393          	li	t2,1
   10214:	50771663          	bne	a4,t2,10720 <fail>

00010218 <test_7>:
   10218:	00700193          	li	gp,7
   1021c:	fff00093          	li	ra,-1
   10220:	00000113          	li	sp,0
   10224:	0020d733          	srl	a4,ra,sp
   10228:	fff00393          	li	t2,-1
   1022c:	4e771a63          	bne	a4,t2,10720 <fail>

00010230 <test_8>:
   10230:	00800193          	li	gp,8
   10234:	fff00093          	li	ra,-1
   10238:	00100113          	li	sp,1
   1023c:	0020d733          	srl	a4,ra,sp
   10240:	800003b7          	lui	t2,0x80000
   10244:	fff38393          	addi	t2,t2,-1 # 7fffffff <fromhost+0x7ffef83f>
   10248:	4c771c63          	bne	a4,t2,10720 <fail>

0001024c <test_9>:
   1024c:	00900193          	li	gp,9
   10250:	fff00093          	li	ra,-1
   10254:	00700113          	li	sp,7
   10258:	0020d733          	srl	a4,ra,sp
   1025c:	020003b7          	lui	t2,0x2000
   10260:	fff38393          	addi	t2,t2,-1 # 1ffffff <fromhost+0x1fef83f>
   10264:	4a771e63          	bne	a4,t2,10720 <fail>

00010268 <test_10>:
   10268:	00a00193          	li	gp,10
   1026c:	fff00093          	li	ra,-1
   10270:	00e00113          	li	sp,14
   10274:	0020d733          	srl	a4,ra,sp
   10278:	000403b7          	lui	t2,0x40
   1027c:	fff38393          	addi	t2,t2,-1 # 3ffff <fromhost+0x2f83f>
   10280:	4a771063          	bne	a4,t2,10720 <fail>

00010284 <test_11>:
   10284:	00b00193          	li	gp,11
   10288:	fff00093          	li	ra,-1
   1028c:	01f00113          	li	sp,31
   10290:	0020d733          	srl	a4,ra,sp
   10294:	00100393          	li	t2,1
   10298:	48771463          	bne	a4,t2,10720 <fail>

0001029c <test_12>:
   1029c:	00c00193          	li	gp,12
   102a0:	212120b7          	lui	ra,0x21212
   102a4:	12108093          	addi	ra,ra,289 # 21212121 <fromhost+0x21201961>
   102a8:	00000113          	li	sp,0
   102ac:	0020d733          	srl	a4,ra,sp
   102b0:	212123b7          	lui	t2,0x21212
   102b4:	12138393          	addi	t2,t2,289 # 21212121 <fromhost+0x21201961>
   102b8:	46771463          	bne	a4,t2,10720 <fail>

000102bc <test_13>:
   102bc:	00d00193          	li	gp,13
   102c0:	212120b7          	lui	ra,0x21212
   102c4:	12108093          	addi	ra,ra,289 # 21212121 <fromhost+0x21201961>
   102c8:	00100113          	li	sp,1
   102cc:	0020d733          	srl	a4,ra,sp
   102d0:	109093b7          	lui	t2,0x10909
   102d4:	09038393          	addi	t2,t2,144 # 10909090 <fromhost+0x108f88d0>
   102d8:	44771463          	bne	a4,t2,10720 <fail>

000102dc <test_14>:
   102dc:	00e00193          	li	gp,14
   102e0:	212120b7          	lui	ra,0x21212
   102e4:	12108093          	addi	ra,ra,289 # 21212121 <fromhost+0x21201961>
   102e8:	00700113          	li	sp,7
   102ec:	0020d733          	srl	a4,ra,sp
   102f0:	004243b7          	lui	t2,0x424
   102f4:	24238393          	addi	t2,t2,578 # 424242 <fromhost+0x413a82>
   102f8:	42771463          	bne	a4,t2,10720 <fail>

000102fc <test_15>:
   102fc:	00f00193          	li	gp,15
   10300:	212120b7          	lui	ra,0x21212
   10304:	12108093          	addi	ra,ra,289 # 21212121 <fromhost+0x21201961>
   10308:	00e00113          	li	sp,14
   1030c:	0020d733          	srl	a4,ra,sp
   10310:	000083b7          	lui	t2,0x8
   10314:	48438393          	addi	t2,t2,1156 # 8484 <_start-0x7b7c>
   10318:	40771463          	bne	a4,t2,10720 <fail>

0001031c <test_16>:
   1031c:	01000193          	li	gp,16
   10320:	212120b7          	lui	ra,0x21212
   10324:	12108093          	addi	ra,ra,289 # 21212121 <fromhost+0x21201961>
   10328:	01f00113          	li	sp,31
   1032c:	0020d733          	srl	a4,ra,sp
   10330:	00000393          	li	t2,0
   10334:	3e771663          	bne	a4,t2,10720 <fail>

00010338 <test_17>:
   10338:	01100193          	li	gp,17
   1033c:	212120b7          	lui	ra,0x21212
   10340:	12108093          	addi	ra,ra,289 # 21212121 <fromhost+0x21201961>
   10344:	fc000113          	li	sp,-64
   10348:	0020d733          	srl	a4,ra,sp
   1034c:	212123b7          	lui	t2,0x21212
   10350:	12138393          	addi	t2,t2,289 # 21212121 <fromhost+0x21201961>
   10354:	3c771663          	bne	a4,t2,10720 <fail>

00010358 <test_18>:
   10358:	01200193          	li	gp,18
   1035c:	212120b7          	lui	ra,0x21212
   10360:	12108093          	addi	ra,ra,289 # 21212121 <fromhost+0x21201961>
   10364:	fc100113          	li	sp,-63
   10368:	0020d733          	srl	a4,ra,sp
   1036c:	109093b7          	lui	t2,0x10909
   10370:	09038393          	addi	t2,t2,144 # 10909090 <fromhost+0x108f88d0>
   10374:	3a771663          	bne	a4,t2,10720 <fail>

00010378 <test_19>:
   10378:	01300193          	li	gp,19
   1037c:	212120b7          	lui	ra,0x21212
   10380:	12108093          	addi	ra,ra,289 # 21212121 <fromhost+0x21201961>
   10384:	fc700113          	li	sp,-57
   10388:	0020d733          	srl	a4,ra,sp
   1038c:	004243b7          	lui	t2,0x424
   10390:	24238393          	addi	t2,t2,578 # 424242 <fromhost+0x413a82>
   10394:	38771663          	bne	a4,t2,10720 <fail>

00010398 <test_20>:
   10398:	01400193          	li	gp,20
   1039c:	212120b7          	lui	ra,0x21212
   103a0:	12108093          	addi	ra,ra,289 # 21212121 <fromhost+0x21201961>
   103a4:	fce00113          	li	sp,-50
   103a8:	0020d733          	srl	a4,ra,sp
   103ac:	000083b7          	lui	t2,0x8
   103b0:	48438393          	addi	t2,t2,1156 # 8484 <_start-0x7b7c>
   103b4:	36771663          	bne	a4,t2,10720 <fail>

000103b8 <test_21>:
   103b8:	01500193          	li	gp,21
   103bc:	212120b7          	lui	ra,0x21212
   103c0:	12108093          	addi	ra,ra,289 # 21212121 <fromhost+0x21201961>
   103c4:	fff00113          	li	sp,-1
   103c8:	0020d733          	srl	a4,ra,sp
   103cc:	00000393          	li	t2,0
   103d0:	34771863          	bne	a4,t2,10720 <fail>

000103d4 <test_22>:
   103d4:	01600193          	li	gp,22
   103d8:	800000b7          	lui	ra,0x80000
   103dc:	00700113          	li	sp,7
   103e0:	0020d0b3          	srl	ra,ra,sp
   103e4:	010003b7          	lui	t2,0x1000
   103e8:	32709c63          	bne	ra,t2,10720 <fail>

000103ec <test_23>:
   103ec:	01700193          	li	gp,23
   103f0:	800000b7          	lui	ra,0x80000
   103f4:	00e00113          	li	sp,14
   103f8:	0020d133          	srl	sp,ra,sp
   103fc:	000203b7          	lui	t2,0x20
   10400:	32711063          	bne	sp,t2,10720 <fail>

00010404 <test_24>:
   10404:	01800193          	li	gp,24
   10408:	00700093          	li	ra,7
   1040c:	0010d0b3          	srl	ra,ra,ra
   10410:	00000393          	li	t2,0
   10414:	30709663          	bne	ra,t2,10720 <fail>

00010418 <test_25>:
   10418:	01900193          	li	gp,25
   1041c:	00000213          	li	tp,0
   10420:	800000b7          	lui	ra,0x80000
   10424:	00700113          	li	sp,7
   10428:	0020d733          	srl	a4,ra,sp
   1042c:	00070313          	mv	t1,a4
   10430:	00120213          	addi	tp,tp,1 # 1 <_start-0xffff>
   10434:	00200293          	li	t0,2
   10438:	fe5214e3          	bne	tp,t0,10420 <test_25+0x8>
   1043c:	010003b7          	lui	t2,0x1000
   10440:	2e731063          	bne	t1,t2,10720 <fail>

00010444 <test_26>:
   10444:	01a00193          	li	gp,26
   10448:	00000213          	li	tp,0
   1044c:	800000b7          	lui	ra,0x80000
   10450:	00e00113          	li	sp,14
   10454:	0020d733          	srl	a4,ra,sp
   10458:	00000013          	nop
   1045c:	00070313          	mv	t1,a4
   10460:	00120213          	addi	tp,tp,1 # 1 <_start-0xffff>
   10464:	00200293          	li	t0,2
   10468:	fe5212e3          	bne	tp,t0,1044c <test_26+0x8>
   1046c:	000203b7          	lui	t2,0x20
   10470:	2a731863          	bne	t1,t2,10720 <fail>

00010474 <test_27>:
   10474:	01b00193          	li	gp,27
   10478:	00000213          	li	tp,0
   1047c:	800000b7          	lui	ra,0x80000
   10480:	01f00113          	li	sp,31
   10484:	0020d733          	srl	a4,ra,sp
   10488:	00000013          	nop
   1048c:	00000013          	nop
   10490:	00070313          	mv	t1,a4
   10494:	00120213          	addi	tp,tp,1 # 1 <_start-0xffff>
   10498:	00200293          	li	t0,2
   1049c:	fe5210e3          	bne	tp,t0,1047c <test_27+0x8>
   104a0:	00100393          	li	t2,1
   104a4:	26731e63          	bne	t1,t2,10720 <fail>

000104a8 <test_28>:
   104a8:	01c00193          	li	gp,28
   104ac:	00000213          	li	tp,0
   104b0:	800000b7          	lui	ra,0x80000
   104b4:	00700113          	li	sp,7
   104b8:	0020d733          	srl	a4,ra,sp
   104bc:	00120213          	addi	tp,tp,1 # 1 <_start-0xffff>
   104c0:	00200293          	li	t0,2
   104c4:	fe5216e3          	bne	tp,t0,104b0 <test_28+0x8>
   104c8:	010003b7          	lui	t2,0x1000
   104cc:	24771a63          	bne	a4,t2,10720 <fail>

000104d0 <test_29>:
   104d0:	01d00193          	li	gp,29
   104d4:	00000213          	li	tp,0
   104d8:	800000b7          	lui	ra,0x80000
   104dc:	00e00113          	li	sp,14
   104e0:	00000013          	nop
   104e4:	0020d733          	srl	a4,ra,sp
   104e8:	00120213          	addi	tp,tp,1 # 1 <_start-0xffff>
   104ec:	00200293          	li	t0,2
   104f0:	fe5214e3          	bne	tp,t0,104d8 <test_29+0x8>
   104f4:	000203b7          	lui	t2,0x20
   104f8:	22771463          	bne	a4,t2,10720 <fail>

000104fc <test_30>:
   104fc:	01e00193          	li	gp,30
   10500:	00000213          	li	tp,0
   10504:	800000b7          	lui	ra,0x80000
   10508:	01f00113          	li	sp,31
   1050c:	00000013          	nop
   10510:	00000013          	nop
   10514:	0020d733          	srl	a4,ra,sp
   10518:	00120213          	addi	tp,tp,1 # 1 <_start-0xffff>
   1051c:	00200293          	li	t0,2
   10520:	fe5212e3          	bne	tp,t0,10504 <test_30+0x8>
   10524:	00100393          	li	t2,1
   10528:	1e771c63          	bne	a4,t2,10720 <fail>

0001052c <test_31>:
   1052c:	01f00193          	li	gp,31
   10530:	00000213          	li	tp,0
   10534:	800000b7          	lui	ra,0x80000
   10538:	00000013          	nop
   1053c:	00700113          	li	sp,7
   10540:	0020d733          	srl	a4,ra,sp
   10544:	00120213          	addi	tp,tp,1 # 1 <_start-0xffff>
   10548:	00200293          	li	t0,2
   1054c:	fe5214e3          	bne	tp,t0,10534 <test_31+0x8>
   10550:	010003b7          	lui	t2,0x1000
   10554:	1c771663          	bne	a4,t2,10720 <fail>

00010558 <test_32>:
   10558:	02000193          	li	gp,32
   1055c:	00000213          	li	tp,0
   10560:	800000b7          	lui	ra,0x80000
   10564:	00000013          	nop
   10568:	00e00113          	li	sp,14
   1056c:	00000013          	nop
   10570:	0020d733          	srl	a4,ra,sp
   10574:	00120213          	addi	tp,tp,1 # 1 <_start-0xffff>
   10578:	00200293          	li	t0,2
   1057c:	fe5212e3          	bne	tp,t0,10560 <test_32+0x8>
   10580:	000203b7          	lui	t2,0x20
   10584:	18771e63          	bne	a4,t2,10720 <fail>

00010588 <test_33>:
   10588:	02100193          	li	gp,33
   1058c:	00000213          	li	tp,0
   10590:	800000b7          	lui	ra,0x80000
   10594:	00000013          	nop
   10598:	00000013          	nop
   1059c:	01f00113          	li	sp,31
   105a0:	0020d733          	srl	a4,ra,sp
   105a4:	00120213          	addi	tp,tp,1 # 1 <_start-0xffff>
   105a8:	00200293          	li	t0,2
   105ac:	fe5212e3          	bne	tp,t0,10590 <test_33+0x8>
   105b0:	00100393          	li	t2,1
   105b4:	16771663          	bne	a4,t2,10720 <fail>

000105b8 <test_34>:
   105b8:	02200193          	li	gp,34
   105bc:	00000213          	li	tp,0
   105c0:	00700113          	li	sp,7
   105c4:	800000b7          	lui	ra,0x80000
   105c8:	0020d733          	srl	a4,ra,sp
   105cc:	00120213          	addi	tp,tp,1 # 1 <_start-0xffff>
   105d0:	00200293          	li	t0,2
   105d4:	fe5216e3          	bne	tp,t0,105c0 <test_34+0x8>
   105d8:	010003b7          	lui	t2,0x1000
   105dc:	14771263          	bne	a4,t2,10720 <fail>

000105e0 <test_35>:
   105e0:	02300193          	li	gp,35
   105e4:	00000213          	li	tp,0
   105e8:	00e00113          	li	sp,14
   105ec:	800000b7          	lui	ra,0x80000
   105f0:	00000013          	nop
   105f4:	0020d733          	srl	a4,ra,sp
   105f8:	00120213          	addi	tp,tp,1 # 1 <_start-0xffff>
   105fc:	00200293          	li	t0,2
   10600:	fe5214e3          	bne	tp,t0,105e8 <test_35+0x8>
   10604:	000203b7          	lui	t2,0x20
   10608:	10771c63          	bne	a4,t2,10720 <fail>

0001060c <test_36>:
   1060c:	02400193          	li	gp,36
   10610:	00000213          	li	tp,0
   10614:	01f00113          	li	sp,31
   10618:	800000b7          	lui	ra,0x80000
   1061c:	00000013          	nop
   10620:	00000013          	nop
   10624:	0020d733          	srl	a4,ra,sp
   10628:	00120213          	addi	tp,tp,1 # 1 <_start-0xffff>
   1062c:	00200293          	li	t0,2
   10630:	fe5212e3          	bne	tp,t0,10614 <test_36+0x8>
   10634:	00100393          	li	t2,1
   10638:	0e771463          	bne	a4,t2,10720 <fail>

0001063c <test_37>:
   1063c:	02500193          	li	gp,37
   10640:	00000213          	li	tp,0
   10644:	00700113          	li	sp,7
   10648:	00000013          	nop
   1064c:	800000b7          	lui	ra,0x80000
   10650:	0020d733          	srl	a4,ra,sp
   10654:	00120213          	addi	tp,tp,1 # 1 <_start-0xffff>
   10658:	00200293          	li	t0,2
   1065c:	fe5214e3          	bne	tp,t0,10644 <test_37+0x8>
   10660:	010003b7          	lui	t2,0x1000
   10664:	0a771e63          	bne	a4,t2,10720 <fail>

00010668 <test_38>:
   10668:	02600193          	li	gp,38
   1066c:	00000213          	li	tp,0
   10670:	00e00113          	li	sp,14
   10674:	00000013          	nop
   10678:	800000b7          	lui	ra,0x80000
   1067c:	00000013          	nop
   10680:	0020d733          	srl	a4,ra,sp
   10684:	00120213          	addi	tp,tp,1 # 1 <_start-0xffff>
   10688:	00200293          	li	t0,2
   1068c:	fe5212e3          	bne	tp,t0,10670 <test_38+0x8>
   10690:	000203b7          	lui	t2,0x20
   10694:	08771663          	bne	a4,t2,10720 <fail>

00010698 <test_39>:
   10698:	02700193          	li	gp,39
   1069c:	00000213          	li	tp,0
   106a0:	01f00113          	li	sp,31
   106a4:	00000013          	nop
   106a8:	00000013          	nop
   106ac:	800000b7          	lui	ra,0x80000
   106b0:	0020d733          	srl	a4,ra,sp
   106b4:	00120213          	addi	tp,tp,1 # 1 <_start-0xffff>
   106b8:	00200293          	li	t0,2
   106bc:	fe5212e3          	bne	tp,t0,106a0 <test_39+0x8>
   106c0:	00100393          	li	t2,1
   106c4:	04771e63          	bne	a4,t2,10720 <fail>

000106c8 <test_40>:
   106c8:	02800193          	li	gp,40
   106cc:	00f00093          	li	ra,15
   106d0:	00105133          	srl	sp,zero,ra
   106d4:	00000393          	li	t2,0
   106d8:	04711463          	bne	sp,t2,10720 <fail>

000106dc <test_41>:
   106dc:	02900193          	li	gp,41
   106e0:	02000093          	li	ra,32
   106e4:	0000d133          	srl	sp,ra,zero
   106e8:	02000393          	li	t2,32
   106ec:	02711a63          	bne	sp,t2,10720 <fail>

000106f0 <test_42>:
   106f0:	02a00193          	li	gp,42
   106f4:	000050b3          	srl	ra,zero,zero
   106f8:	00000393          	li	t2,0
   106fc:	02709263          	bne	ra,t2,10720 <fail>

00010700 <test_43>:
   10700:	02b00193          	li	gp,43
   10704:	40000093          	li	ra,1024
   10708:	00001137          	lui	sp,0x1
   1070c:	80010113          	addi	sp,sp,-2048 # 800 <_start-0xf800>
   10710:	0020d033          	srl	zero,ra,sp
   10714:	00000393          	li	t2,0
   10718:	00701463          	bne	zero,t2,10720 <fail>
   1071c:	02301863          	bne	zero,gp,1074c <pass>

00010720 <fail>:
   10720:	0ff0000f          	fence
   10724:	00018063          	beqz	gp,10724 <fail+0x4>
   10728:	00119193          	slli	gp,gp,0x1
   1072c:	0011e193          	ori	gp,gp,1
   10730:	05d00893          	li	a7,93
   10734:	00018513          	mv	a0,gp
   10738:	00100593          	li	a1,1
   1073c:	00c59593          	slli	a1,a1,0xc
   10740:	00358023          	sb	gp,0(a1)
   10744:	8bdff06f          	j	10000 <_start>
   10748:	00000073          	ecall

0001074c <pass>:
   1074c:	0ff0000f          	fence
   10750:	00100193          	li	gp,1
   10754:	05d00893          	li	a7,93
   10758:	00000513          	li	a0,0
   1075c:	00100593          	li	a1,1
   10760:	00c59593          	slli	a1,a1,0xc
   10764:	00358023          	sb	gp,0(a1)
   10768:	899ff06f          	j	10000 <_start>
   1076c:	00000073          	ecall
   10770:	c0001073          	unimp
   10774:	0000                	.insn	2, 0x
   10776:	0000                	.insn	2, 0x
   10778:	0000                	.insn	2, 0x
   1077a:	0000                	.insn	2, 0x
   1077c:	0000                	.insn	2, 0x
   1077e:	0000                	.insn	2, 0x
