
rv32ui-p-sb:     file format elf32-littleriscv


Disassembly of section .text:

00010000 <_start>:
   10000:	0500006f          	j	10050 <reset_vector>

00010004 <trap_vector>:
   10004:	34202f73          	csrr	t5,mcause
   10008:	00800f93          	li	t6,8
   1000c:	03ff0863          	beq	t5,t6,1003c <write_tohost>
   10010:	00900f93          	li	t6,9
   10014:	03ff0463          	beq	t5,t6,1003c <write_tohost>
   10018:	00b00f93          	li	t6,11
   1001c:	03ff0063          	beq	t5,t6,1003c <write_tohost>
   10020:	00000f13          	li	t5,0
   10024:	000f0463          	beqz	t5,1002c <trap_vector+0x28>
   10028:	000f0067          	jr	t5
   1002c:	34202f73          	csrr	t5,mcause
   10030:	000f5463          	bgez	t5,10038 <handle_exception>
   10034:	0040006f          	j	10038 <handle_exception>

00010038 <handle_exception>:
   10038:	5391e193          	ori	gp,gp,1337

0001003c <write_tohost>:
   1003c:	00000f17          	auipc	t5,0x0
   10040:	683f2223          	sw	gp,1668(t5) # 106c0 <tohost>
   10044:	00000f17          	auipc	t5,0x0
   10048:	680f2023          	sw	zero,1664(t5) # 106c4 <tohost+0x4>
   1004c:	ff1ff06f          	j	1003c <write_tohost>

00010050 <reset_vector>:
   10050:	00000093          	li	ra,0
   10054:	00000113          	li	sp,0
   10058:	00000193          	li	gp,0
   1005c:	00000213          	li	tp,0
   10060:	00000293          	li	t0,0
   10064:	00000313          	li	t1,0
   10068:	00000393          	li	t2,0
   1006c:	00000413          	li	s0,0
   10070:	00000493          	li	s1,0
   10074:	00000513          	li	a0,0
   10078:	00000593          	li	a1,0
   1007c:	00000613          	li	a2,0
   10080:	00000693          	li	a3,0
   10084:	00000713          	li	a4,0
   10088:	00000793          	li	a5,0
   1008c:	00000813          	li	a6,0
   10090:	00000893          	li	a7,0
   10094:	00000913          	li	s2,0
   10098:	00000993          	li	s3,0
   1009c:	00000a13          	li	s4,0
   100a0:	00000a93          	li	s5,0
   100a4:	00000b13          	li	s6,0
   100a8:	00000b93          	li	s7,0
   100ac:	00000c13          	li	s8,0
   100b0:	00000c93          	li	s9,0
   100b4:	00000d13          	li	s10,0
   100b8:	00000d93          	li	s11,0
   100bc:	00000e13          	li	t3,0
   100c0:	00000e93          	li	t4,0
   100c4:	00000f13          	li	t5,0
   100c8:	00000f93          	li	t6,0
   100cc:	f1402573          	csrr	a0,mhartid
   100d0:	00051063          	bnez	a0,100d0 <reset_vector+0x80>
   100d4:	00000297          	auipc	t0,0x0
   100d8:	01028293          	addi	t0,t0,16 # 100e4 <reset_vector+0x94>
   100dc:	30529073          	csrw	mtvec,t0
   100e0:	74445073          	csrwi	0x744,8
   100e4:	00000297          	auipc	t0,0x0
   100e8:	01028293          	addi	t0,t0,16 # 100f4 <reset_vector+0xa4>
   100ec:	30529073          	csrw	mtvec,t0
   100f0:	18005073          	csrwi	satp,0
   100f4:	00000297          	auipc	t0,0x0
   100f8:	02028293          	addi	t0,t0,32 # 10114 <reset_vector+0xc4>
   100fc:	30529073          	csrw	mtvec,t0
   10100:	800002b7          	lui	t0,0x80000
   10104:	fff28293          	addi	t0,t0,-1 # 7fffffff <fromhost+0x7ffef8ff>
   10108:	3b029073          	csrw	pmpaddr0,t0
   1010c:	01f00293          	li	t0,31
   10110:	3a029073          	csrw	pmpcfg0,t0
   10114:	30405073          	csrwi	mie,0
   10118:	00000297          	auipc	t0,0x0
   1011c:	01428293          	addi	t0,t0,20 # 1012c <reset_vector+0xdc>
   10120:	30529073          	csrw	mtvec,t0
   10124:	30205073          	csrwi	medeleg,0
   10128:	30305073          	csrwi	mideleg,0
   1012c:	00000193          	li	gp,0
   10130:	00000297          	auipc	t0,0x0
   10134:	ed428293          	addi	t0,t0,-300 # 10004 <trap_vector>
   10138:	30529073          	csrw	mtvec,t0
   1013c:	00100513          	li	a0,1
   10140:	01f51513          	slli	a0,a0,0x1f
   10144:	02054463          	bltz	a0,1016c <reset_vector+0x11c>
   10148:	0ff0000f          	fence
   1014c:	00100193          	li	gp,1
   10150:	05d00893          	li	a7,93
   10154:	00000513          	li	a0,0
   10158:	00100593          	li	a1,1
   1015c:	00c59593          	slli	a1,a1,0xc
   10160:	00358023          	sb	gp,0(a1)
   10164:	e9dff06f          	j	10000 <_start>
   10168:	00000073          	ecall
   1016c:	00000293          	li	t0,0
   10170:	00028a63          	beqz	t0,10184 <reset_vector+0x134>
   10174:	10529073          	csrw	stvec,t0
   10178:	0000b2b7          	lui	t0,0xb
   1017c:	10928293          	addi	t0,t0,265 # b109 <_start-0x4ef7>
   10180:	30229073          	csrw	medeleg,t0
   10184:	30005073          	csrwi	mstatus,0
   10188:	00000297          	auipc	t0,0x0
   1018c:	01428293          	addi	t0,t0,20 # 1019c <test_2>
   10190:	34129073          	csrw	mepc,t0
   10194:	f1402573          	csrr	a0,mhartid
   10198:	30200073          	mret

0001019c <test_2>:
   1019c:	00200193          	li	gp,2
   101a0:	00000097          	auipc	ra,0x0
   101a4:	4e008093          	addi	ra,ra,1248 # 10680 <begin_signature>
   101a8:	faa00113          	li	sp,-86
   101ac:	00000797          	auipc	a5,0x0
   101b0:	01478793          	addi	a5,a5,20 # 101c0 <test_2+0x24>
   101b4:	00208023          	sb	sp,0(ra)
   101b8:	00008703          	lb	a4,0(ra)
   101bc:	0080006f          	j	101c4 <test_2+0x28>
   101c0:	00010713          	mv	a4,sp
   101c4:	faa00393          	li	t2,-86
   101c8:	44771463          	bne	a4,t2,10610 <fail>

000101cc <test_3>:
   101cc:	00300193          	li	gp,3
   101d0:	00000097          	auipc	ra,0x0
   101d4:	4b008093          	addi	ra,ra,1200 # 10680 <begin_signature>
   101d8:	00000113          	li	sp,0
   101dc:	00000797          	auipc	a5,0x0
   101e0:	01478793          	addi	a5,a5,20 # 101f0 <test_3+0x24>
   101e4:	002080a3          	sb	sp,1(ra)
   101e8:	00108703          	lb	a4,1(ra)
   101ec:	0080006f          	j	101f4 <test_3+0x28>
   101f0:	00010713          	mv	a4,sp
   101f4:	00000393          	li	t2,0
   101f8:	40771c63          	bne	a4,t2,10610 <fail>

000101fc <test_4>:
   101fc:	00400193          	li	gp,4
   10200:	00000097          	auipc	ra,0x0
   10204:	48008093          	addi	ra,ra,1152 # 10680 <begin_signature>
   10208:	fffff137          	lui	sp,0xfffff
   1020c:	fa010113          	addi	sp,sp,-96 # ffffefa0 <fromhost+0xfffee8a0>
   10210:	00000797          	auipc	a5,0x0
   10214:	01478793          	addi	a5,a5,20 # 10224 <test_4+0x28>
   10218:	00208123          	sb	sp,2(ra)
   1021c:	00209703          	lh	a4,2(ra)
   10220:	0080006f          	j	10228 <test_4+0x2c>
   10224:	00010713          	mv	a4,sp
   10228:	fffff3b7          	lui	t2,0xfffff
   1022c:	fa038393          	addi	t2,t2,-96 # ffffefa0 <fromhost+0xfffee8a0>
   10230:	3e771063          	bne	a4,t2,10610 <fail>

00010234 <test_5>:
   10234:	00500193          	li	gp,5
   10238:	00000097          	auipc	ra,0x0
   1023c:	44808093          	addi	ra,ra,1096 # 10680 <begin_signature>
   10240:	00a00113          	li	sp,10
   10244:	00000797          	auipc	a5,0x0
   10248:	01478793          	addi	a5,a5,20 # 10258 <test_5+0x24>
   1024c:	002081a3          	sb	sp,3(ra)
   10250:	00308703          	lb	a4,3(ra)
   10254:	0080006f          	j	1025c <test_5+0x28>
   10258:	00010713          	mv	a4,sp
   1025c:	00a00393          	li	t2,10
   10260:	3a771863          	bne	a4,t2,10610 <fail>

00010264 <test_6>:
   10264:	00600193          	li	gp,6
   10268:	00000097          	auipc	ra,0x0
   1026c:	41f08093          	addi	ra,ra,1055 # 10687 <tdat8>
   10270:	faa00113          	li	sp,-86
   10274:	00000797          	auipc	a5,0x0
   10278:	01478793          	addi	a5,a5,20 # 10288 <test_6+0x24>
   1027c:	fe208ea3          	sb	sp,-3(ra)
   10280:	ffd08703          	lb	a4,-3(ra)
   10284:	0080006f          	j	1028c <test_6+0x28>
   10288:	00010713          	mv	a4,sp
   1028c:	faa00393          	li	t2,-86
   10290:	38771063          	bne	a4,t2,10610 <fail>

00010294 <test_7>:
   10294:	00700193          	li	gp,7
   10298:	00000097          	auipc	ra,0x0
   1029c:	3ef08093          	addi	ra,ra,1007 # 10687 <tdat8>
   102a0:	00000113          	li	sp,0
   102a4:	00000797          	auipc	a5,0x0
   102a8:	01478793          	addi	a5,a5,20 # 102b8 <test_7+0x24>
   102ac:	fe208f23          	sb	sp,-2(ra)
   102b0:	ffe08703          	lb	a4,-2(ra)
   102b4:	0080006f          	j	102bc <test_7+0x28>
   102b8:	00010713          	mv	a4,sp
   102bc:	00000393          	li	t2,0
   102c0:	34771863          	bne	a4,t2,10610 <fail>

000102c4 <test_8>:
   102c4:	00800193          	li	gp,8
   102c8:	00000097          	auipc	ra,0x0
   102cc:	3bf08093          	addi	ra,ra,959 # 10687 <tdat8>
   102d0:	fa000113          	li	sp,-96
   102d4:	00000797          	auipc	a5,0x0
   102d8:	01478793          	addi	a5,a5,20 # 102e8 <test_8+0x24>
   102dc:	fe208fa3          	sb	sp,-1(ra)
   102e0:	fff08703          	lb	a4,-1(ra)
   102e4:	0080006f          	j	102ec <test_8+0x28>
   102e8:	00010713          	mv	a4,sp
   102ec:	fa000393          	li	t2,-96
   102f0:	32771063          	bne	a4,t2,10610 <fail>

000102f4 <test_9>:
   102f4:	00900193          	li	gp,9
   102f8:	00000097          	auipc	ra,0x0
   102fc:	38f08093          	addi	ra,ra,911 # 10687 <tdat8>
   10300:	00a00113          	li	sp,10
   10304:	00000797          	auipc	a5,0x0
   10308:	01478793          	addi	a5,a5,20 # 10318 <test_9+0x24>
   1030c:	00208023          	sb	sp,0(ra)
   10310:	00008703          	lb	a4,0(ra)
   10314:	0080006f          	j	1031c <test_9+0x28>
   10318:	00010713          	mv	a4,sp
   1031c:	00a00393          	li	t2,10
   10320:	2e771863          	bne	a4,t2,10610 <fail>

00010324 <test_10>:
   10324:	00a00193          	li	gp,10
   10328:	00000097          	auipc	ra,0x0
   1032c:	36008093          	addi	ra,ra,864 # 10688 <tdat9>
   10330:	12345137          	lui	sp,0x12345
   10334:	67810113          	addi	sp,sp,1656 # 12345678 <fromhost+0x12334f78>
   10338:	fe008213          	addi	tp,ra,-32
   1033c:	02220023          	sb	sp,32(tp) # 20 <_start-0xffe0>
   10340:	00008283          	lb	t0,0(ra)
   10344:	07800393          	li	t2,120
   10348:	2c729463          	bne	t0,t2,10610 <fail>

0001034c <test_11>:
   1034c:	00b00193          	li	gp,11
   10350:	00000097          	auipc	ra,0x0
   10354:	33808093          	addi	ra,ra,824 # 10688 <tdat9>
   10358:	00003137          	lui	sp,0x3
   1035c:	09810113          	addi	sp,sp,152 # 3098 <_start-0xcf68>
   10360:	ffa08093          	addi	ra,ra,-6
   10364:	002083a3          	sb	sp,7(ra)
   10368:	00000217          	auipc	tp,0x0
   1036c:	32120213          	addi	tp,tp,801 # 10689 <tdat10>
   10370:	00020283          	lb	t0,0(tp) # 0 <_start-0x10000>
   10374:	f9800393          	li	t2,-104
   10378:	28729c63          	bne	t0,t2,10610 <fail>

0001037c <test_12>:
   1037c:	00c00193          	li	gp,12
   10380:	00000213          	li	tp,0
   10384:	fdd00093          	li	ra,-35
   10388:	00000117          	auipc	sp,0x0
   1038c:	2f810113          	addi	sp,sp,760 # 10680 <begin_signature>
   10390:	00110023          	sb	ra,0(sp)
   10394:	00010703          	lb	a4,0(sp)
   10398:	fdd00393          	li	t2,-35
   1039c:	26771a63          	bne	a4,t2,10610 <fail>
   103a0:	00120213          	addi	tp,tp,1 # 1 <_start-0xffff>
   103a4:	00200293          	li	t0,2
   103a8:	fc521ee3          	bne	tp,t0,10384 <test_12+0x8>

000103ac <test_13>:
   103ac:	00d00193          	li	gp,13
   103b0:	00000213          	li	tp,0
   103b4:	fcd00093          	li	ra,-51
   103b8:	00000117          	auipc	sp,0x0
   103bc:	2c810113          	addi	sp,sp,712 # 10680 <begin_signature>
   103c0:	00000013          	nop
   103c4:	001100a3          	sb	ra,1(sp)
   103c8:	00110703          	lb	a4,1(sp)
   103cc:	fcd00393          	li	t2,-51
   103d0:	24771063          	bne	a4,t2,10610 <fail>
   103d4:	00120213          	addi	tp,tp,1 # 1 <_start-0xffff>
   103d8:	00200293          	li	t0,2
   103dc:	fc521ce3          	bne	tp,t0,103b4 <test_13+0x8>

000103e0 <test_14>:
   103e0:	00e00193          	li	gp,14
   103e4:	00000213          	li	tp,0
   103e8:	fcc00093          	li	ra,-52
   103ec:	00000117          	auipc	sp,0x0
   103f0:	29410113          	addi	sp,sp,660 # 10680 <begin_signature>
   103f4:	00000013          	nop
   103f8:	00000013          	nop
   103fc:	00110123          	sb	ra,2(sp)
   10400:	00210703          	lb	a4,2(sp)
   10404:	fcc00393          	li	t2,-52
   10408:	20771463          	bne	a4,t2,10610 <fail>
   1040c:	00120213          	addi	tp,tp,1 # 1 <_start-0xffff>
   10410:	00200293          	li	t0,2
   10414:	fc521ae3          	bne	tp,t0,103e8 <test_14+0x8>

00010418 <test_15>:
   10418:	00f00193          	li	gp,15
   1041c:	00000213          	li	tp,0
   10420:	fbc00093          	li	ra,-68
   10424:	00000013          	nop
   10428:	00000117          	auipc	sp,0x0
   1042c:	25810113          	addi	sp,sp,600 # 10680 <begin_signature>
   10430:	001101a3          	sb	ra,3(sp)
   10434:	00310703          	lb	a4,3(sp)
   10438:	fbc00393          	li	t2,-68
   1043c:	1c771a63          	bne	a4,t2,10610 <fail>
   10440:	00120213          	addi	tp,tp,1 # 1 <_start-0xffff>
   10444:	00200293          	li	t0,2
   10448:	fc521ce3          	bne	tp,t0,10420 <test_15+0x8>

0001044c <test_16>:
   1044c:	01000193          	li	gp,16
   10450:	00000213          	li	tp,0
   10454:	fbb00093          	li	ra,-69
   10458:	00000013          	nop
   1045c:	00000117          	auipc	sp,0x0
   10460:	22410113          	addi	sp,sp,548 # 10680 <begin_signature>
   10464:	00000013          	nop
   10468:	00110223          	sb	ra,4(sp)
   1046c:	00410703          	lb	a4,4(sp)
   10470:	fbb00393          	li	t2,-69
   10474:	18771e63          	bne	a4,t2,10610 <fail>
   10478:	00120213          	addi	tp,tp,1 # 1 <_start-0xffff>
   1047c:	00200293          	li	t0,2
   10480:	fc521ae3          	bne	tp,t0,10454 <test_16+0x8>

00010484 <test_17>:
   10484:	01100193          	li	gp,17
   10488:	00000213          	li	tp,0
   1048c:	fab00093          	li	ra,-85
   10490:	00000013          	nop
   10494:	00000013          	nop
   10498:	00000117          	auipc	sp,0x0
   1049c:	1e810113          	addi	sp,sp,488 # 10680 <begin_signature>
   104a0:	001102a3          	sb	ra,5(sp)
   104a4:	00510703          	lb	a4,5(sp)
   104a8:	fab00393          	li	t2,-85
   104ac:	16771263          	bne	a4,t2,10610 <fail>
   104b0:	00120213          	addi	tp,tp,1 # 1 <_start-0xffff>
   104b4:	00200293          	li	t0,2
   104b8:	fc521ae3          	bne	tp,t0,1048c <test_17+0x8>

000104bc <test_18>:
   104bc:	01200193          	li	gp,18
   104c0:	00000213          	li	tp,0
   104c4:	00000117          	auipc	sp,0x0
   104c8:	1bc10113          	addi	sp,sp,444 # 10680 <begin_signature>
   104cc:	03300093          	li	ra,51
   104d0:	00110023          	sb	ra,0(sp)
   104d4:	00010703          	lb	a4,0(sp)
   104d8:	03300393          	li	t2,51
   104dc:	12771a63          	bne	a4,t2,10610 <fail>
   104e0:	00120213          	addi	tp,tp,1 # 1 <_start-0xffff>
   104e4:	00200293          	li	t0,2
   104e8:	fc521ee3          	bne	tp,t0,104c4 <test_18+0x8>

000104ec <test_19>:
   104ec:	01300193          	li	gp,19
   104f0:	00000213          	li	tp,0
   104f4:	00000117          	auipc	sp,0x0
   104f8:	18c10113          	addi	sp,sp,396 # 10680 <begin_signature>
   104fc:	02300093          	li	ra,35
   10500:	00000013          	nop
   10504:	001100a3          	sb	ra,1(sp)
   10508:	00110703          	lb	a4,1(sp)
   1050c:	02300393          	li	t2,35
   10510:	10771063          	bne	a4,t2,10610 <fail>
   10514:	00120213          	addi	tp,tp,1 # 1 <_start-0xffff>
   10518:	00200293          	li	t0,2
   1051c:	fc521ce3          	bne	tp,t0,104f4 <test_19+0x8>

00010520 <test_20>:
   10520:	01400193          	li	gp,20
   10524:	00000213          	li	tp,0
   10528:	00000117          	auipc	sp,0x0
   1052c:	15810113          	addi	sp,sp,344 # 10680 <begin_signature>
   10530:	02200093          	li	ra,34
   10534:	00000013          	nop
   10538:	00000013          	nop
   1053c:	00110123          	sb	ra,2(sp)
   10540:	00210703          	lb	a4,2(sp)
   10544:	02200393          	li	t2,34
   10548:	0c771463          	bne	a4,t2,10610 <fail>
   1054c:	00120213          	addi	tp,tp,1 # 1 <_start-0xffff>
   10550:	00200293          	li	t0,2
   10554:	fc521ae3          	bne	tp,t0,10528 <test_20+0x8>

00010558 <test_21>:
   10558:	01500193          	li	gp,21
   1055c:	00000213          	li	tp,0
   10560:	00000117          	auipc	sp,0x0
   10564:	12010113          	addi	sp,sp,288 # 10680 <begin_signature>
   10568:	00000013          	nop
   1056c:	01200093          	li	ra,18
   10570:	001101a3          	sb	ra,3(sp)
   10574:	00310703          	lb	a4,3(sp)
   10578:	01200393          	li	t2,18
   1057c:	08771a63          	bne	a4,t2,10610 <fail>
   10580:	00120213          	addi	tp,tp,1 # 1 <_start-0xffff>
   10584:	00200293          	li	t0,2
   10588:	fc521ce3          	bne	tp,t0,10560 <test_21+0x8>

0001058c <test_22>:
   1058c:	01600193          	li	gp,22
   10590:	00000213          	li	tp,0
   10594:	00000117          	auipc	sp,0x0
   10598:	0ec10113          	addi	sp,sp,236 # 10680 <begin_signature>
   1059c:	00000013          	nop
   105a0:	01100093          	li	ra,17
   105a4:	00000013          	nop
   105a8:	00110223          	sb	ra,4(sp)
   105ac:	00410703          	lb	a4,4(sp)
   105b0:	01100393          	li	t2,17
   105b4:	04771e63          	bne	a4,t2,10610 <fail>
   105b8:	00120213          	addi	tp,tp,1 # 1 <_start-0xffff>
   105bc:	00200293          	li	t0,2
   105c0:	fc521ae3          	bne	tp,t0,10594 <test_22+0x8>

000105c4 <test_23>:
   105c4:	01700193          	li	gp,23
   105c8:	00000213          	li	tp,0
   105cc:	00000117          	auipc	sp,0x0
   105d0:	0b410113          	addi	sp,sp,180 # 10680 <begin_signature>
   105d4:	00000013          	nop
   105d8:	00000013          	nop
   105dc:	00100093          	li	ra,1
   105e0:	001102a3          	sb	ra,5(sp)
   105e4:	00510703          	lb	a4,5(sp)
   105e8:	00100393          	li	t2,1
   105ec:	02771263          	bne	a4,t2,10610 <fail>
   105f0:	00120213          	addi	tp,tp,1 # 1 <_start-0xffff>
   105f4:	00200293          	li	t0,2
   105f8:	fc521ae3          	bne	tp,t0,105cc <test_23+0x8>
   105fc:	0ef00513          	li	a0,239
   10600:	00000597          	auipc	a1,0x0
   10604:	08058593          	addi	a1,a1,128 # 10680 <begin_signature>
   10608:	00a581a3          	sb	a0,3(a1)
   1060c:	02301863          	bne	zero,gp,1063c <pass>

00010610 <fail>:
   10610:	0ff0000f          	fence
   10614:	00018063          	beqz	gp,10614 <fail+0x4>
   10618:	00119193          	slli	gp,gp,0x1
   1061c:	0011e193          	ori	gp,gp,1
   10620:	05d00893          	li	a7,93
   10624:	00018513          	mv	a0,gp
   10628:	00100593          	li	a1,1
   1062c:	00c59593          	slli	a1,a1,0xc
   10630:	00358023          	sb	gp,0(a1)
   10634:	9cdff06f          	j	10000 <_start>
   10638:	00000073          	ecall

0001063c <pass>:
   1063c:	0ff0000f          	fence
   10640:	00100193          	li	gp,1
   10644:	05d00893          	li	a7,93
   10648:	00000513          	li	a0,0
   1064c:	00100593          	li	a1,1
   10650:	00c59593          	slli	a1,a1,0xc
   10654:	00358023          	sb	gp,0(a1)
   10658:	9a9ff06f          	j	10000 <_start>
   1065c:	00000073          	ecall
   10660:	c0001073          	unimp
   10664:	0000                	.insn	2, 0x
   10666:	0000                	.insn	2, 0x
   10668:	0000                	.insn	2, 0x
   1066a:	0000                	.insn	2, 0x
   1066c:	0000                	.insn	2, 0x
   1066e:	0000                	.insn	2, 0x
   10670:	0000                	.insn	2, 0x
   10672:	0000                	.insn	2, 0x
   10674:	0000                	.insn	2, 0x
   10676:	0000                	.insn	2, 0x
   10678:	0000                	.insn	2, 0x
   1067a:	0000                	.insn	2, 0x
   1067c:	0000                	.insn	2, 0x
   1067e:	0000                	.insn	2, 0x

00010680 <begin_signature>:
   10680:	          	jal	t6,ed7e <_start-0x1282>

00010681 <tdat2>:
   10681:	          	jal	t6,ed7f <_start-0x1281>

00010682 <tdat3>:
   10682:	          	jal	t6,ed80 <_start-0x1280>

00010683 <tdat4>:
   10683:	          	jal	t6,ed81 <_start-0x127f>

00010684 <tdat5>:
   10684:	          	jal	t6,ed82 <_start-0x127e>

00010685 <tdat6>:
   10685:	          	jal	t6,ed83 <_start-0x127d>

00010686 <tdat7>:
   10686:	          	jal	t6,ed84 <_start-0x127c>

00010687 <tdat8>:
   10687:	          	jal	t6,10e695 <fromhost+0xfdf95>

00010688 <tdat9>:
   10688:	          	jal	t6,1e688 <fromhost+0xdf88>

00010689 <tdat10>:
   10689:	000000ef          	jal	10689 <tdat10>
   1068d:	0000                	.insn	2, 0x
   1068f:	Address 0x1068f is out of bounds.

