
rv32ui-p-ori:     file format elf32-littleriscv


Disassembly of section .text:

00010000 <_start>:
   10000:	0500006f          	j	10050 <reset_vector>

00010004 <trap_vector>:
   10004:	34202f73          	csrr	t5,mcause
   10008:	00800f93          	li	t6,8
   1000c:	03ff0863          	beq	t5,t6,1003c <write_tohost>
   10010:	00900f93          	li	t6,9
   10014:	03ff0463          	beq	t5,t6,1003c <write_tohost>
   10018:	00b00f93          	li	t6,11
   1001c:	03ff0063          	beq	t5,t6,1003c <write_tohost>
   10020:	00000f13          	li	t5,0
   10024:	000f0463          	beqz	t5,1002c <trap_vector+0x28>
   10028:	000f0067          	jr	t5
   1002c:	34202f73          	csrr	t5,mcause
   10030:	000f5463          	bgez	t5,10038 <handle_exception>
   10034:	0040006f          	j	10038 <handle_exception>

00010038 <handle_exception>:
   10038:	5391e193          	ori	gp,gp,1337

0001003c <write_tohost>:
   1003c:	00000f17          	auipc	t5,0x0
   10040:	3c3f2223          	sw	gp,964(t5) # 10400 <_end>
   10044:	00000f17          	auipc	t5,0x0
   10048:	3c0f2023          	sw	zero,960(t5) # 10404 <_end+0x4>
   1004c:	ff1ff06f          	j	1003c <write_tohost>

00010050 <reset_vector>:
   10050:	00000093          	li	ra,0
   10054:	00000113          	li	sp,0
   10058:	00000193          	li	gp,0
   1005c:	00000213          	li	tp,0
   10060:	00000293          	li	t0,0
   10064:	00000313          	li	t1,0
   10068:	00000393          	li	t2,0
   1006c:	00000413          	li	s0,0
   10070:	00000493          	li	s1,0
   10074:	00000513          	li	a0,0
   10078:	00000593          	li	a1,0
   1007c:	00000613          	li	a2,0
   10080:	00000693          	li	a3,0
   10084:	00000713          	li	a4,0
   10088:	00000793          	li	a5,0
   1008c:	00000813          	li	a6,0
   10090:	00000893          	li	a7,0
   10094:	00000913          	li	s2,0
   10098:	00000993          	li	s3,0
   1009c:	00000a13          	li	s4,0
   100a0:	00000a93          	li	s5,0
   100a4:	00000b13          	li	s6,0
   100a8:	00000b93          	li	s7,0
   100ac:	00000c13          	li	s8,0
   100b0:	00000c93          	li	s9,0
   100b4:	00000d13          	li	s10,0
   100b8:	00000d93          	li	s11,0
   100bc:	00000e13          	li	t3,0
   100c0:	00000e93          	li	t4,0
   100c4:	00000f13          	li	t5,0
   100c8:	00000f93          	li	t6,0
   100cc:	f1402573          	csrr	a0,mhartid
   100d0:	00051063          	bnez	a0,100d0 <reset_vector+0x80>
   100d4:	00000297          	auipc	t0,0x0
   100d8:	01028293          	addi	t0,t0,16 # 100e4 <reset_vector+0x94>
   100dc:	30529073          	csrw	mtvec,t0
   100e0:	74445073          	csrwi	0x744,8
   100e4:	00000297          	auipc	t0,0x0
   100e8:	01028293          	addi	t0,t0,16 # 100f4 <reset_vector+0xa4>
   100ec:	30529073          	csrw	mtvec,t0
   100f0:	18005073          	csrwi	satp,0
   100f4:	00000297          	auipc	t0,0x0
   100f8:	02028293          	addi	t0,t0,32 # 10114 <reset_vector+0xc4>
   100fc:	30529073          	csrw	mtvec,t0
   10100:	800002b7          	lui	t0,0x80000
   10104:	fff28293          	addi	t0,t0,-1 # 7fffffff <fromhost+0x7ffefbbf>
   10108:	3b029073          	csrw	pmpaddr0,t0
   1010c:	01f00293          	li	t0,31
   10110:	3a029073          	csrw	pmpcfg0,t0
   10114:	30405073          	csrwi	mie,0
   10118:	00000297          	auipc	t0,0x0
   1011c:	01428293          	addi	t0,t0,20 # 1012c <reset_vector+0xdc>
   10120:	30529073          	csrw	mtvec,t0
   10124:	30205073          	csrwi	medeleg,0
   10128:	30305073          	csrwi	mideleg,0
   1012c:	00000193          	li	gp,0
   10130:	00000297          	auipc	t0,0x0
   10134:	ed428293          	addi	t0,t0,-300 # 10004 <trap_vector>
   10138:	30529073          	csrw	mtvec,t0
   1013c:	00100513          	li	a0,1
   10140:	01f51513          	slli	a0,a0,0x1f
   10144:	02054463          	bltz	a0,1016c <reset_vector+0x11c>
   10148:	0ff0000f          	fence
   1014c:	00100193          	li	gp,1
   10150:	05d00893          	li	a7,93
   10154:	00000513          	li	a0,0
   10158:	00100593          	li	a1,1
   1015c:	00c59593          	slli	a1,a1,0xc
   10160:	00358023          	sb	gp,0(a1)
   10164:	e9dff06f          	j	10000 <_start>
   10168:	00000073          	ecall
   1016c:	00000293          	li	t0,0
   10170:	00028a63          	beqz	t0,10184 <reset_vector+0x134>
   10174:	10529073          	csrw	stvec,t0
   10178:	0000b2b7          	lui	t0,0xb
   1017c:	10928293          	addi	t0,t0,265 # b109 <_start-0x4ef7>
   10180:	30229073          	csrw	medeleg,t0
   10184:	30005073          	csrwi	mstatus,0
   10188:	00000297          	auipc	t0,0x0
   1018c:	01428293          	addi	t0,t0,20 # 1019c <test_2>
   10190:	34129073          	csrw	mepc,t0
   10194:	f1402573          	csrr	a0,mhartid
   10198:	30200073          	mret

0001019c <test_2>:
   1019c:	00200193          	li	gp,2
   101a0:	ff0100b7          	lui	ra,0xff010
   101a4:	f0008093          	addi	ra,ra,-256 # ff00ff00 <fromhost+0xfefffac0>
   101a8:	f0f0e713          	ori	a4,ra,-241
   101ac:	f0f00393          	li	t2,-241
   101b0:	1c771463          	bne	a4,t2,10378 <fail>

000101b4 <test_3>:
   101b4:	00300193          	li	gp,3
   101b8:	0ff010b7          	lui	ra,0xff01
   101bc:	ff008093          	addi	ra,ra,-16 # ff00ff0 <fromhost+0xfef0bb0>
   101c0:	0f00e713          	ori	a4,ra,240
   101c4:	0ff013b7          	lui	t2,0xff01
   101c8:	ff038393          	addi	t2,t2,-16 # ff00ff0 <fromhost+0xfef0bb0>
   101cc:	1a771663          	bne	a4,t2,10378 <fail>

000101d0 <test_4>:
   101d0:	00400193          	li	gp,4
   101d4:	00ff00b7          	lui	ra,0xff0
   101d8:	0ff08093          	addi	ra,ra,255 # ff00ff <fromhost+0xfdfcbf>
   101dc:	70f0e713          	ori	a4,ra,1807
   101e0:	00ff03b7          	lui	t2,0xff0
   101e4:	7ff38393          	addi	t2,t2,2047 # ff07ff <fromhost+0xfe03bf>
   101e8:	18771863          	bne	a4,t2,10378 <fail>

000101ec <test_5>:
   101ec:	00500193          	li	gp,5
   101f0:	f00ff0b7          	lui	ra,0xf00ff
   101f4:	00f08093          	addi	ra,ra,15 # f00ff00f <fromhost+0xf00eebcf>
   101f8:	0f00e713          	ori	a4,ra,240
   101fc:	f00ff3b7          	lui	t2,0xf00ff
   10200:	0ff38393          	addi	t2,t2,255 # f00ff0ff <fromhost+0xf00eecbf>
   10204:	16771a63          	bne	a4,t2,10378 <fail>

00010208 <test_6>:
   10208:	00600193          	li	gp,6
   1020c:	ff0100b7          	lui	ra,0xff010
   10210:	f0008093          	addi	ra,ra,-256 # ff00ff00 <fromhost+0xfefffac0>
   10214:	0f00e093          	ori	ra,ra,240
   10218:	ff0103b7          	lui	t2,0xff010
   1021c:	ff038393          	addi	t2,t2,-16 # ff00fff0 <fromhost+0xfefffbb0>
   10220:	14709c63          	bne	ra,t2,10378 <fail>

00010224 <test_7>:
   10224:	00700193          	li	gp,7
   10228:	00000213          	li	tp,0
   1022c:	0ff010b7          	lui	ra,0xff01
   10230:	ff008093          	addi	ra,ra,-16 # ff00ff0 <fromhost+0xfef0bb0>
   10234:	0f00e713          	ori	a4,ra,240
   10238:	00070313          	mv	t1,a4
   1023c:	00120213          	addi	tp,tp,1 # 1 <_start-0xffff>
   10240:	00200293          	li	t0,2
   10244:	fe5214e3          	bne	tp,t0,1022c <test_7+0x8>
   10248:	0ff013b7          	lui	t2,0xff01
   1024c:	ff038393          	addi	t2,t2,-16 # ff00ff0 <fromhost+0xfef0bb0>
   10250:	12731463          	bne	t1,t2,10378 <fail>

00010254 <test_8>:
   10254:	00800193          	li	gp,8
   10258:	00000213          	li	tp,0
   1025c:	00ff00b7          	lui	ra,0xff0
   10260:	0ff08093          	addi	ra,ra,255 # ff00ff <fromhost+0xfdfcbf>
   10264:	70f0e713          	ori	a4,ra,1807
   10268:	00000013          	nop
   1026c:	00070313          	mv	t1,a4
   10270:	00120213          	addi	tp,tp,1 # 1 <_start-0xffff>
   10274:	00200293          	li	t0,2
   10278:	fe5212e3          	bne	tp,t0,1025c <test_8+0x8>
   1027c:	00ff03b7          	lui	t2,0xff0
   10280:	7ff38393          	addi	t2,t2,2047 # ff07ff <fromhost+0xfe03bf>
   10284:	0e731a63          	bne	t1,t2,10378 <fail>

00010288 <test_9>:
   10288:	00900193          	li	gp,9
   1028c:	00000213          	li	tp,0
   10290:	f00ff0b7          	lui	ra,0xf00ff
   10294:	00f08093          	addi	ra,ra,15 # f00ff00f <fromhost+0xf00eebcf>
   10298:	0f00e713          	ori	a4,ra,240
   1029c:	00000013          	nop
   102a0:	00000013          	nop
   102a4:	00070313          	mv	t1,a4
   102a8:	00120213          	addi	tp,tp,1 # 1 <_start-0xffff>
   102ac:	00200293          	li	t0,2
   102b0:	fe5210e3          	bne	tp,t0,10290 <test_9+0x8>
   102b4:	f00ff3b7          	lui	t2,0xf00ff
   102b8:	0ff38393          	addi	t2,t2,255 # f00ff0ff <fromhost+0xf00eecbf>
   102bc:	0a731e63          	bne	t1,t2,10378 <fail>

000102c0 <test_10>:
   102c0:	00a00193          	li	gp,10
   102c4:	00000213          	li	tp,0
   102c8:	0ff010b7          	lui	ra,0xff01
   102cc:	ff008093          	addi	ra,ra,-16 # ff00ff0 <fromhost+0xfef0bb0>
   102d0:	0f00e713          	ori	a4,ra,240
   102d4:	00120213          	addi	tp,tp,1 # 1 <_start-0xffff>
   102d8:	00200293          	li	t0,2
   102dc:	fe5216e3          	bne	tp,t0,102c8 <test_10+0x8>
   102e0:	0ff013b7          	lui	t2,0xff01
   102e4:	ff038393          	addi	t2,t2,-16 # ff00ff0 <fromhost+0xfef0bb0>
   102e8:	08771863          	bne	a4,t2,10378 <fail>

000102ec <test_11>:
   102ec:	00b00193          	li	gp,11
   102f0:	00000213          	li	tp,0
   102f4:	00ff00b7          	lui	ra,0xff0
   102f8:	0ff08093          	addi	ra,ra,255 # ff00ff <fromhost+0xfdfcbf>
   102fc:	00000013          	nop
   10300:	f0f0e713          	ori	a4,ra,-241
   10304:	00120213          	addi	tp,tp,1 # 1 <_start-0xffff>
   10308:	00200293          	li	t0,2
   1030c:	fe5214e3          	bne	tp,t0,102f4 <test_11+0x8>
   10310:	fff00393          	li	t2,-1
   10314:	06771263          	bne	a4,t2,10378 <fail>

00010318 <test_12>:
   10318:	00c00193          	li	gp,12
   1031c:	00000213          	li	tp,0
   10320:	f00ff0b7          	lui	ra,0xf00ff
   10324:	00f08093          	addi	ra,ra,15 # f00ff00f <fromhost+0xf00eebcf>
   10328:	00000013          	nop
   1032c:	00000013          	nop
   10330:	0f00e713          	ori	a4,ra,240
   10334:	00120213          	addi	tp,tp,1 # 1 <_start-0xffff>
   10338:	00200293          	li	t0,2
   1033c:	fe5212e3          	bne	tp,t0,10320 <test_12+0x8>
   10340:	f00ff3b7          	lui	t2,0xf00ff
   10344:	0ff38393          	addi	t2,t2,255 # f00ff0ff <fromhost+0xf00eecbf>
   10348:	02771863          	bne	a4,t2,10378 <fail>

0001034c <test_13>:
   1034c:	00d00193          	li	gp,13
   10350:	0f006093          	ori	ra,zero,240
   10354:	0f000393          	li	t2,240
   10358:	02709063          	bne	ra,t2,10378 <fail>

0001035c <test_14>:
   1035c:	00e00193          	li	gp,14
   10360:	00ff00b7          	lui	ra,0xff0
   10364:	0ff08093          	addi	ra,ra,255 # ff00ff <fromhost+0xfdfcbf>
   10368:	70f0e013          	ori	zero,ra,1807
   1036c:	00000393          	li	t2,0
   10370:	00701463          	bne	zero,t2,10378 <fail>
   10374:	02301863          	bne	zero,gp,103a4 <pass>

00010378 <fail>:
   10378:	0ff0000f          	fence
   1037c:	00018063          	beqz	gp,1037c <fail+0x4>
   10380:	00119193          	slli	gp,gp,0x1
   10384:	0011e193          	ori	gp,gp,1
   10388:	05d00893          	li	a7,93
   1038c:	00018513          	mv	a0,gp
   10390:	00100593          	li	a1,1
   10394:	00c59593          	slli	a1,a1,0xc
   10398:	00358023          	sb	gp,0(a1)
   1039c:	c65ff06f          	j	10000 <_start>
   103a0:	00000073          	ecall

000103a4 <pass>:
   103a4:	0ff0000f          	fence
   103a8:	00100193          	li	gp,1
   103ac:	05d00893          	li	a7,93
   103b0:	00000513          	li	a0,0
   103b4:	00100593          	li	a1,1
   103b8:	00c59593          	slli	a1,a1,0xc
   103bc:	00358023          	sb	gp,0(a1)
   103c0:	c41ff06f          	j	10000 <_start>
   103c4:	00000073          	ecall
   103c8:	c0001073          	unimp
   103cc:	0000                	.insn	2, 0x
   103ce:	0000                	.insn	2, 0x
   103d0:	0000                	.insn	2, 0x
   103d2:	0000                	.insn	2, 0x
   103d4:	0000                	.insn	2, 0x
   103d6:	0000                	.insn	2, 0x
   103d8:	0000                	.insn	2, 0x
   103da:	0000                	.insn	2, 0x
   103dc:	0000                	.insn	2, 0x
   103de:	0000                	.insn	2, 0x
   103e0:	0000                	.insn	2, 0x
   103e2:	0000                	.insn	2, 0x
   103e4:	0000                	.insn	2, 0x
   103e6:	0000                	.insn	2, 0x
   103e8:	0000                	.insn	2, 0x
   103ea:	0000                	.insn	2, 0x
   103ec:	0000                	.insn	2, 0x
   103ee:	0000                	.insn	2, 0x
   103f0:	0000                	.insn	2, 0x
   103f2:	0000                	.insn	2, 0x
   103f4:	0000                	.insn	2, 0x
   103f6:	0000                	.insn	2, 0x
   103f8:	0000                	.insn	2, 0x
   103fa:	0000                	.insn	2, 0x
   103fc:	0000                	.insn	2, 0x
   103fe:	0000                	.insn	2, 0x
