
coremark.elf:     file format elf32-littleriscv


Disassembly of section .text:

00010000 <entry>:
   10000:	00006197          	auipc	gp,0x6
   10004:	43718193          	addi	gp,gp,1079 # 16437 <__global_pointer$>
   10008:	00008117          	auipc	sp,0x8
   1000c:	ff810113          	addi	sp,sp,-8 # 18000 <__stack_end>
   10010:	159000ef          	jal	10968 <main>
   10014:	00100073          	ebreak

00010018 <cmp_idx>:
   10018:	00060a63          	beqz	a2,1002c <cmp_idx+0x14>
   1001c:	00251503          	lh	a0,2(a0)
   10020:	00259783          	lh	a5,2(a1)
   10024:	40f50533          	sub	a0,a0,a5
   10028:	00008067          	ret
   1002c:	00051783          	lh	a5,0(a0)
   10030:	01079713          	slli	a4,a5,0x10
   10034:	01075713          	srli	a4,a4,0x10
   10038:	00875713          	srli	a4,a4,0x8
   1003c:	f007f793          	andi	a5,a5,-256
   10040:	00e7e7b3          	or	a5,a5,a4
   10044:	00f51023          	sh	a5,0(a0)
   10048:	00059783          	lh	a5,0(a1)
   1004c:	00251503          	lh	a0,2(a0)
   10050:	01079713          	slli	a4,a5,0x10
   10054:	01075713          	srli	a4,a4,0x10
   10058:	00875713          	srli	a4,a4,0x8
   1005c:	f007f793          	andi	a5,a5,-256
   10060:	00e7e7b3          	or	a5,a5,a4
   10064:	00f59023          	sh	a5,0(a1)
   10068:	00259783          	lh	a5,2(a1)
   1006c:	40f50533          	sub	a0,a0,a5
   10070:	00008067          	ret

00010074 <calc_func>:
   10074:	fe010113          	addi	sp,sp,-32
   10078:	00812c23          	sw	s0,24(sp)
   1007c:	00051403          	lh	s0,0(a0)
   10080:	00112e23          	sw	ra,28(sp)
   10084:	40745793          	srai	a5,s0,0x7
   10088:	0017f793          	andi	a5,a5,1
   1008c:	00078c63          	beqz	a5,100a4 <calc_func+0x30>
   10090:	01c12083          	lw	ra,28(sp)
   10094:	07f47513          	andi	a0,s0,127
   10098:	01812403          	lw	s0,24(sp)
   1009c:	02010113          	addi	sp,sp,32
   100a0:	00008067          	ret
   100a4:	40345713          	srai	a4,s0,0x3
   100a8:	00f77713          	andi	a4,a4,15
   100ac:	00471693          	slli	a3,a4,0x4
   100b0:	0385d783          	lhu	a5,56(a1)
   100b4:	00912a23          	sw	s1,20(sp)
   100b8:	01312623          	sw	s3,12(sp)
   100bc:	00058493          	mv	s1,a1
   100c0:	01212823          	sw	s2,16(sp)
   100c4:	00d705b3          	add	a1,a4,a3
   100c8:	00747613          	andi	a2,s0,7
   100cc:	00050993          	mv	s3,a0
   100d0:	00058713          	mv	a4,a1
   100d4:	08060063          	beqz	a2,10154 <calc_func+0xe0>
   100d8:	00100693          	li	a3,1
   100dc:	06d61463          	bne	a2,a3,10144 <calc_func+0xd0>
   100e0:	00078613          	mv	a2,a5
   100e4:	02848513          	addi	a0,s1,40
   100e8:	56d010ef          	jal	11e54 <core_bench_matrix>
   100ec:	03c4d783          	lhu	a5,60(s1)
   100f0:	01051913          	slli	s2,a0,0x10
   100f4:	41095913          	srai	s2,s2,0x10
   100f8:	08079c63          	bnez	a5,10190 <calc_func+0x11c>
   100fc:	0384d783          	lhu	a5,56(s1)
   10100:	02a49e23          	sh	a0,60(s1)
   10104:	00078593          	mv	a1,a5
   10108:	3f0020ef          	jal	124f8 <crcu16>
   1010c:	00050793          	mv	a5,a0
   10110:	f0047413          	andi	s0,s0,-256
   10114:	07f97513          	andi	a0,s2,127
   10118:	00856433          	or	s0,a0,s0
   1011c:	02f49c23          	sh	a5,56(s1)
   10120:	08046413          	ori	s0,s0,128
   10124:	00899023          	sh	s0,0(s3)
   10128:	01c12083          	lw	ra,28(sp)
   1012c:	01812403          	lw	s0,24(sp)
   10130:	01412483          	lw	s1,20(sp)
   10134:	01012903          	lw	s2,16(sp)
   10138:	00c12983          	lw	s3,12(sp)
   1013c:	02010113          	addi	sp,sp,32
   10140:	00008067          	ret
   10144:	01041513          	slli	a0,s0,0x10
   10148:	01055513          	srli	a0,a0,0x10
   1014c:	00040913          	mv	s2,s0
   10150:	fb5ff06f          	j	10104 <calc_func+0x90>
   10154:	02100693          	li	a3,33
   10158:	00b6e463          	bltu	a3,a1,10160 <calc_func+0xec>
   1015c:	02200713          	li	a4,34
   10160:	00249683          	lh	a3,2(s1)
   10164:	00049603          	lh	a2,0(s1)
   10168:	0144a583          	lw	a1,20(s1)
   1016c:	0184a503          	lw	a0,24(s1)
   10170:	150020ef          	jal	122c0 <core_bench_state>
   10174:	03e4d783          	lhu	a5,62(s1)
   10178:	01051913          	slli	s2,a0,0x10
   1017c:	41095913          	srai	s2,s2,0x10
   10180:	00079863          	bnez	a5,10190 <calc_func+0x11c>
   10184:	0384d783          	lhu	a5,56(s1)
   10188:	02a49f23          	sh	a0,62(s1)
   1018c:	f79ff06f          	j	10104 <calc_func+0x90>
   10190:	0384d783          	lhu	a5,56(s1)
   10194:	f71ff06f          	j	10104 <calc_func+0x90>

00010198 <cmp_complex>:
   10198:	ff010113          	addi	sp,sp,-16
   1019c:	00912223          	sw	s1,4(sp)
   101a0:	00058493          	mv	s1,a1
   101a4:	00060593          	mv	a1,a2
   101a8:	00112623          	sw	ra,12(sp)
   101ac:	00812423          	sw	s0,8(sp)
   101b0:	00060413          	mv	s0,a2
   101b4:	ec1ff0ef          	jal	10074 <calc_func>
   101b8:	00050793          	mv	a5,a0
   101bc:	00040593          	mv	a1,s0
   101c0:	00048513          	mv	a0,s1
   101c4:	00078413          	mv	s0,a5
   101c8:	eadff0ef          	jal	10074 <calc_func>
   101cc:	00c12083          	lw	ra,12(sp)
   101d0:	40a40533          	sub	a0,s0,a0
   101d4:	00812403          	lw	s0,8(sp)
   101d8:	00412483          	lw	s1,4(sp)
   101dc:	01010113          	addi	sp,sp,16
   101e0:	00008067          	ret

000101e4 <copy_info>:
   101e4:	00059703          	lh	a4,0(a1)
   101e8:	00259783          	lh	a5,2(a1)
   101ec:	00e51023          	sh	a4,0(a0)
   101f0:	00f51123          	sh	a5,2(a0)
   101f4:	00008067          	ret

000101f8 <core_list_insert_new>:
   101f8:	00062803          	lw	a6,0(a2)
   101fc:	00880893          	addi	a7,a6,8
   10200:	04e8f663          	bgeu	a7,a4,1024c <core_list_insert_new+0x54>
   10204:	0006a703          	lw	a4,0(a3)
   10208:	00470313          	addi	t1,a4,4
   1020c:	04f37063          	bgeu	t1,a5,1024c <core_list_insert_new+0x54>
   10210:	01162023          	sw	a7,0(a2)
   10214:	00052783          	lw	a5,0(a0)
   10218:	00059883          	lh	a7,0(a1)
   1021c:	00259603          	lh	a2,2(a1)
   10220:	00f82023          	sw	a5,0(a6)
   10224:	01052023          	sw	a6,0(a0)
   10228:	00e82223          	sw	a4,4(a6)
   1022c:	0006a783          	lw	a5,0(a3)
   10230:	00080513          	mv	a0,a6
   10234:	00478793          	addi	a5,a5,4
   10238:	00f6a023          	sw	a5,0(a3)
   1023c:	00482783          	lw	a5,4(a6)
   10240:	01179023          	sh	a7,0(a5)
   10244:	00c79123          	sh	a2,2(a5)
   10248:	00008067          	ret
   1024c:	00000813          	li	a6,0
   10250:	00080513          	mv	a0,a6
   10254:	00008067          	ret

00010258 <core_list_remove>:
   10258:	00050793          	mv	a5,a0
   1025c:	00052503          	lw	a0,0(a0)
   10260:	0047a683          	lw	a3,4(a5)
   10264:	00452603          	lw	a2,4(a0)
   10268:	00052703          	lw	a4,0(a0)
   1026c:	00c7a223          	sw	a2,4(a5)
   10270:	00d52223          	sw	a3,4(a0)
   10274:	00e7a023          	sw	a4,0(a5)
   10278:	00052023          	sw	zero,0(a0)
   1027c:	00008067          	ret

00010280 <core_list_undo_remove>:
   10280:	0045a603          	lw	a2,4(a1)
   10284:	00452683          	lw	a3,4(a0)
   10288:	0005a703          	lw	a4,0(a1)
   1028c:	00c52223          	sw	a2,4(a0)
   10290:	00d5a223          	sw	a3,4(a1)
   10294:	00e52023          	sw	a4,0(a0)
   10298:	00a5a023          	sw	a0,0(a1)
   1029c:	00008067          	ret

000102a0 <core_list_find>:
   102a0:	00259703          	lh	a4,2(a1)
   102a4:	02074263          	bltz	a4,102c8 <core_list_find+0x28>
   102a8:	00051863          	bnez	a0,102b8 <core_list_find+0x18>
   102ac:	00008067          	ret
   102b0:	00052503          	lw	a0,0(a0)
   102b4:	02050c63          	beqz	a0,102ec <core_list_find+0x4c>
   102b8:	00452783          	lw	a5,4(a0)
   102bc:	00279783          	lh	a5,2(a5)
   102c0:	fee798e3          	bne	a5,a4,102b0 <core_list_find+0x10>
   102c4:	00008067          	ret
   102c8:	02050263          	beqz	a0,102ec <core_list_find+0x4c>
   102cc:	00059703          	lh	a4,0(a1)
   102d0:	00c0006f          	j	102dc <core_list_find+0x3c>
   102d4:	00052503          	lw	a0,0(a0)
   102d8:	00050c63          	beqz	a0,102f0 <core_list_find+0x50>
   102dc:	00452783          	lw	a5,4(a0)
   102e0:	0007c783          	lbu	a5,0(a5)
   102e4:	fee798e3          	bne	a5,a4,102d4 <core_list_find+0x34>
   102e8:	00008067          	ret
   102ec:	00000513          	li	a0,0
   102f0:	00008067          	ret

000102f4 <core_list_reverse>:
   102f4:	02050063          	beqz	a0,10314 <core_list_reverse+0x20>
   102f8:	00000713          	li	a4,0
   102fc:	0080006f          	j	10304 <core_list_reverse+0x10>
   10300:	00078513          	mv	a0,a5
   10304:	00052783          	lw	a5,0(a0)
   10308:	00e52023          	sw	a4,0(a0)
   1030c:	00050713          	mv	a4,a0
   10310:	fe0798e3          	bnez	a5,10300 <core_list_reverse+0xc>
   10314:	00008067          	ret

00010318 <core_list_mergesort>:
   10318:	fd010113          	addi	sp,sp,-48
   1031c:	01312e23          	sw	s3,28(sp)
   10320:	01512a23          	sw	s5,20(sp)
   10324:	01712623          	sw	s7,12(sp)
   10328:	01812423          	sw	s8,8(sp)
   1032c:	01a12023          	sw	s10,0(sp)
   10330:	02112623          	sw	ra,44(sp)
   10334:	02812423          	sw	s0,40(sp)
   10338:	02912223          	sw	s1,36(sp)
   1033c:	03212023          	sw	s2,32(sp)
   10340:	01412c23          	sw	s4,24(sp)
   10344:	01612823          	sw	s6,16(sp)
   10348:	01912223          	sw	s9,4(sp)
   1034c:	00050993          	mv	s3,a0
   10350:	00058c13          	mv	s8,a1
   10354:	00060b93          	mv	s7,a2
   10358:	00100a93          	li	s5,1
   1035c:	00100d13          	li	s10,1
   10360:	0c098263          	beqz	s3,10424 <core_list_mergesort+0x10c>
   10364:	00000c93          	li	s9,0
   10368:	00000493          	li	s1,0
   1036c:	00000b13          	li	s6,0
   10370:	001c8c93          	addi	s9,s9,1
   10374:	00098793          	mv	a5,s3
   10378:	00000413          	li	s0,0
   1037c:	01545863          	bge	s0,s5,1038c <core_list_mergesort+0x74>
   10380:	0007a783          	lw	a5,0(a5)
   10384:	00140413          	addi	s0,s0,1
   10388:	fe079ae3          	bnez	a5,1037c <core_list_mergesort+0x64>
   1038c:	00098913          	mv	s2,s3
   10390:	000a8a13          	mv	s4,s5
   10394:	00078993          	mv	s3,a5
   10398:	02805263          	blez	s0,103bc <core_list_mergesort+0xa4>
   1039c:	040a1463          	bnez	s4,103e4 <core_list_mergesort+0xcc>
   103a0:	00090793          	mv	a5,s2
   103a4:	00092903          	lw	s2,0(s2)
   103a8:	fff40413          	addi	s0,s0,-1
   103ac:	02048663          	beqz	s1,103d8 <core_list_mergesort+0xc0>
   103b0:	00f4a023          	sw	a5,0(s1)
   103b4:	00078493          	mv	s1,a5
   103b8:	fe8042e3          	bgtz	s0,1039c <core_list_mergesort+0x84>
   103bc:	05405863          	blez	s4,1040c <core_list_mergesort+0xf4>
   103c0:	04098863          	beqz	s3,10410 <core_list_mergesort+0xf8>
   103c4:	02041263          	bnez	s0,103e8 <core_list_mergesort+0xd0>
   103c8:	00098793          	mv	a5,s3
   103cc:	fffa0a13          	addi	s4,s4,-1
   103d0:	0009a983          	lw	s3,0(s3)
   103d4:	fc049ee3          	bnez	s1,103b0 <core_list_mergesort+0x98>
   103d8:	00078b13          	mv	s6,a5
   103dc:	00078493          	mv	s1,a5
   103e0:	fd9ff06f          	j	103b8 <core_list_mergesort+0xa0>
   103e4:	fa098ee3          	beqz	s3,103a0 <core_list_mergesort+0x88>
   103e8:	0049a583          	lw	a1,4(s3)
   103ec:	00492503          	lw	a0,4(s2)
   103f0:	000b8613          	mv	a2,s7
   103f4:	000c00e7          	jalr	s8
   103f8:	faa054e3          	blez	a0,103a0 <core_list_mergesort+0x88>
   103fc:	00098793          	mv	a5,s3
   10400:	fffa0a13          	addi	s4,s4,-1
   10404:	0009a983          	lw	s3,0(s3)
   10408:	fa5ff06f          	j	103ac <core_list_mergesort+0x94>
   1040c:	f60992e3          	bnez	s3,10370 <core_list_mergesort+0x58>
   10410:	0004a023          	sw	zero,0(s1)
   10414:	01ac8c63          	beq	s9,s10,1042c <core_list_mergesort+0x114>
   10418:	000b0993          	mv	s3,s6
   1041c:	001a9a93          	slli	s5,s5,0x1
   10420:	f40992e3          	bnez	s3,10364 <core_list_mergesort+0x4c>
   10424:	00002023          	sw	zero,0(zero) # 0 <uart_tx-0x1000>
   10428:	00100073          	ebreak
   1042c:	02c12083          	lw	ra,44(sp)
   10430:	02812403          	lw	s0,40(sp)
   10434:	02412483          	lw	s1,36(sp)
   10438:	02012903          	lw	s2,32(sp)
   1043c:	01c12983          	lw	s3,28(sp)
   10440:	01812a03          	lw	s4,24(sp)
   10444:	01412a83          	lw	s5,20(sp)
   10448:	00c12b83          	lw	s7,12(sp)
   1044c:	00812c03          	lw	s8,8(sp)
   10450:	00412c83          	lw	s9,4(sp)
   10454:	00012d03          	lw	s10,0(sp)
   10458:	000b0513          	mv	a0,s6
   1045c:	01012b03          	lw	s6,16(sp)
   10460:	03010113          	addi	sp,sp,48
   10464:	00008067          	ret

00010468 <core_bench_list>:
   10468:	00050613          	mv	a2,a0
   1046c:	00451503          	lh	a0,4(a0)
   10470:	fe010113          	addi	sp,sp,-32
   10474:	00812c23          	sw	s0,24(sp)
   10478:	00912a23          	sw	s1,20(sp)
   1047c:	00112e23          	sw	ra,28(sp)
   10480:	01212823          	sw	s2,16(sp)
   10484:	01312623          	sw	s3,12(sp)
   10488:	01412423          	sw	s4,8(sp)
   1048c:	01512223          	sw	s5,4(sp)
   10490:	02462403          	lw	s0,36(a2)
   10494:	00058493          	mv	s1,a1
   10498:	26a05463          	blez	a0,10700 <core_bench_list+0x298>
   1049c:	00000893          	li	a7,0
   104a0:	00000e13          	li	t3,0
   104a4:	00000313          	li	t1,0
   104a8:	00000813          	li	a6,0
   104ac:	0ff8fa13          	zext.b	s4,a7
   104b0:	1c04cc63          	bltz	s1,10688 <core_bench_list+0x220>
   104b4:	24040c63          	beqz	s0,1070c <core_bench_list+0x2a4>
   104b8:	00040793          	mv	a5,s0
   104bc:	00c0006f          	j	104c8 <core_bench_list+0x60>
   104c0:	0007a783          	lw	a5,0(a5)
   104c4:	00078863          	beqz	a5,104d4 <core_bench_list+0x6c>
   104c8:	0047a703          	lw	a4,4(a5)
   104cc:	00271703          	lh	a4,2(a4)
   104d0:	fe9718e3          	bne	a4,s1,104c0 <core_bench_list+0x58>
   104d4:	00000693          	li	a3,0
   104d8:	0080006f          	j	104e0 <core_bench_list+0x78>
   104dc:	00070413          	mv	s0,a4
   104e0:	00042703          	lw	a4,0(s0)
   104e4:	00d42023          	sw	a3,0(s0)
   104e8:	00040693          	mv	a3,s0
   104ec:	fe0718e3          	bnez	a4,104dc <core_bench_list+0x74>
   104f0:	1a078e63          	beqz	a5,106ac <core_bench_list+0x244>
   104f4:	0047a703          	lw	a4,4(a5)
   104f8:	00071703          	lh	a4,0(a4)
   104fc:	00177693          	andi	a3,a4,1
   10500:	00068c63          	beqz	a3,10518 <core_bench_list+0xb0>
   10504:	40975713          	srai	a4,a4,0x9
   10508:	00177713          	andi	a4,a4,1
   1050c:	00e80733          	add	a4,a6,a4
   10510:	01071813          	slli	a6,a4,0x10
   10514:	01085813          	srli	a6,a6,0x10
   10518:	0007a703          	lw	a4,0(a5)
   1051c:	00070c63          	beqz	a4,10534 <core_bench_list+0xcc>
   10520:	00072683          	lw	a3,0(a4)
   10524:	00d7a023          	sw	a3,0(a5)
   10528:	00042783          	lw	a5,0(s0)
   1052c:	00f72023          	sw	a5,0(a4)
   10530:	00e42023          	sw	a4,0(s0)
   10534:	00130313          	addi	t1,t1,1
   10538:	01031313          	slli	t1,t1,0x10
   1053c:	01035313          	srli	t1,t1,0x10
   10540:	0004c863          	bltz	s1,10550 <core_bench_list+0xe8>
   10544:	00148493          	addi	s1,s1,1
   10548:	01049493          	slli	s1,s1,0x10
   1054c:	4104d493          	srai	s1,s1,0x10
   10550:	00188893          	addi	a7,a7,1
   10554:	01089893          	slli	a7,a7,0x10
   10558:	4108d893          	srai	a7,a7,0x10
   1055c:	f51518e3          	bne	a0,a7,104ac <core_bench_list+0x44>
   10560:	00231793          	slli	a5,t1,0x2
   10564:	41c787b3          	sub	a5,a5,t3
   10568:	00f80833          	add	a6,a6,a5
   1056c:	01081913          	slli	s2,a6,0x10
   10570:	01095913          	srli	s2,s2,0x10
   10574:	00b05c63          	blez	a1,1058c <core_bench_list+0x124>
   10578:	00040513          	mv	a0,s0
   1057c:	00000597          	auipc	a1,0x0
   10580:	c1c58593          	addi	a1,a1,-996 # 10198 <cmp_complex>
   10584:	d95ff0ef          	jal	10318 <core_list_mergesort>
   10588:	00050413          	mv	s0,a0
   1058c:	00042783          	lw	a5,0(s0)
   10590:	00040993          	mv	s3,s0
   10594:	0007aa83          	lw	s5,0(a5)
   10598:	0047a703          	lw	a4,4(a5)
   1059c:	004aa603          	lw	a2,4(s5)
   105a0:	000aa683          	lw	a3,0(s5)
   105a4:	00c7a223          	sw	a2,4(a5)
   105a8:	00eaa223          	sw	a4,4(s5)
   105ac:	00d7a023          	sw	a3,0(a5)
   105b0:	000aa023          	sw	zero,0(s5)
   105b4:	0004d863          	bgez	s1,105c4 <core_bench_list+0x15c>
   105b8:	0c00006f          	j	10678 <core_bench_list+0x210>
   105bc:	0009a983          	lw	s3,0(s3)
   105c0:	10098c63          	beqz	s3,106d8 <core_bench_list+0x270>
   105c4:	0049a783          	lw	a5,4(s3)
   105c8:	00279783          	lh	a5,2(a5)
   105cc:	fe9798e3          	bne	a5,s1,105bc <core_bench_list+0x154>
   105d0:	00442783          	lw	a5,4(s0)
   105d4:	00090593          	mv	a1,s2
   105d8:	00079503          	lh	a0,0(a5)
   105dc:	0c4020ef          	jal	126a0 <crc16>
   105e0:	0009a983          	lw	s3,0(s3)
   105e4:	00050913          	mv	s2,a0
   105e8:	fe0994e3          	bnez	s3,105d0 <core_bench_list+0x168>
   105ec:	00042983          	lw	s3,0(s0)
   105f0:	004aa703          	lw	a4,4(s5)
   105f4:	0049a683          	lw	a3,4(s3)
   105f8:	0009a783          	lw	a5,0(s3)
   105fc:	00040513          	mv	a0,s0
   10600:	00daa223          	sw	a3,4(s5)
   10604:	00e9a223          	sw	a4,4(s3)
   10608:	00faa023          	sw	a5,0(s5)
   1060c:	00000613          	li	a2,0
   10610:	0159a023          	sw	s5,0(s3)
   10614:	00000597          	auipc	a1,0x0
   10618:	a0458593          	addi	a1,a1,-1532 # 10018 <cmp_idx>
   1061c:	cfdff0ef          	jal	10318 <core_list_mergesort>
   10620:	00052403          	lw	s0,0(a0)
   10624:	00050493          	mv	s1,a0
   10628:	02040063          	beqz	s0,10648 <core_bench_list+0x1e0>
   1062c:	0044a783          	lw	a5,4(s1)
   10630:	00090593          	mv	a1,s2
   10634:	00079503          	lh	a0,0(a5)
   10638:	068020ef          	jal	126a0 <crc16>
   1063c:	00042403          	lw	s0,0(s0)
   10640:	00050913          	mv	s2,a0
   10644:	fe0414e3          	bnez	s0,1062c <core_bench_list+0x1c4>
   10648:	01c12083          	lw	ra,28(sp)
   1064c:	01812403          	lw	s0,24(sp)
   10650:	01412483          	lw	s1,20(sp)
   10654:	00c12983          	lw	s3,12(sp)
   10658:	00812a03          	lw	s4,8(sp)
   1065c:	00412a83          	lw	s5,4(sp)
   10660:	00090513          	mv	a0,s2
   10664:	01012903          	lw	s2,16(sp)
   10668:	02010113          	addi	sp,sp,32
   1066c:	00008067          	ret
   10670:	0009a983          	lw	s3,0(s3)
   10674:	06098263          	beqz	s3,106d8 <core_bench_list+0x270>
   10678:	0049a783          	lw	a5,4(s3)
   1067c:	0007c783          	lbu	a5,0(a5)
   10680:	fefa18e3          	bne	s4,a5,10670 <core_bench_list+0x208>
   10684:	f4dff06f          	j	105d0 <core_bench_list+0x168>
   10688:	08040263          	beqz	s0,1070c <core_bench_list+0x2a4>
   1068c:	00040793          	mv	a5,s0
   10690:	00c0006f          	j	1069c <core_bench_list+0x234>
   10694:	0007a783          	lw	a5,0(a5)
   10698:	e2078ee3          	beqz	a5,104d4 <core_bench_list+0x6c>
   1069c:	0047a703          	lw	a4,4(a5)
   106a0:	00074703          	lbu	a4,0(a4)
   106a4:	feea18e3          	bne	s4,a4,10694 <core_bench_list+0x22c>
   106a8:	e2dff06f          	j	104d4 <core_bench_list+0x6c>
   106ac:	00042783          	lw	a5,0(s0)
   106b0:	001e0e13          	addi	t3,t3,1
   106b4:	010e1e13          	slli	t3,t3,0x10
   106b8:	0047a783          	lw	a5,4(a5)
   106bc:	010e5e13          	srli	t3,t3,0x10
   106c0:	00178783          	lb	a5,1(a5)
   106c4:	0017f793          	andi	a5,a5,1
   106c8:	00f807b3          	add	a5,a6,a5
   106cc:	01079813          	slli	a6,a5,0x10
   106d0:	01085813          	srli	a6,a6,0x10
   106d4:	e6dff06f          	j	10540 <core_bench_list+0xd8>
   106d8:	00042983          	lw	s3,0(s0)
   106dc:	f0098ce3          	beqz	s3,105f4 <core_bench_list+0x18c>
   106e0:	00442783          	lw	a5,4(s0)
   106e4:	00090593          	mv	a1,s2
   106e8:	00079503          	lh	a0,0(a5)
   106ec:	7b5010ef          	jal	126a0 <crc16>
   106f0:	0009a983          	lw	s3,0(s3)
   106f4:	00050913          	mv	s2,a0
   106f8:	ec099ce3          	bnez	s3,105d0 <core_bench_list+0x168>
   106fc:	ef1ff06f          	j	105ec <core_bench_list+0x184>
   10700:	00000913          	li	s2,0
   10704:	00000a13          	li	s4,0
   10708:	e6dff06f          	j	10574 <core_bench_list+0x10c>
   1070c:	00002783          	lw	a5,0(zero) # 0 <uart_tx-0x1000>
   10710:	00100073          	ebreak

00010714 <core_list_init>:
   10714:	fe010113          	addi	sp,sp,-32
   10718:	01212823          	sw	s2,16(sp)
   1071c:	00058913          	mv	s2,a1
   10720:	01400593          	li	a1,20
   10724:	00812c23          	sw	s0,24(sp)
   10728:	01312623          	sw	s3,12(sp)
   1072c:	00112e23          	sw	ra,28(sp)
   10730:	00060993          	mv	s3,a2
   10734:	00912a23          	sw	s1,20(sp)
   10738:	26d040ef          	jal	151a4 <__hidden___udivsi3>
   1073c:	ffe50513          	addi	a0,a0,-2
   10740:	00351613          	slli	a2,a0,0x3
   10744:	00c90633          	add	a2,s2,a2
   10748:	ffff87b7          	lui	a5,0xffff8
   1074c:	00092023          	sw	zero,0(s2)
   10750:	00c92223          	sw	a2,4(s2)
   10754:	08078793          	addi	a5,a5,128 # ffff8080 <__stack_end+0xfffe0080>
   10758:	00251e13          	slli	t3,a0,0x2
   1075c:	00f61023          	sh	a5,0(a2)
   10760:	00061123          	sh	zero,2(a2)
   10764:	01090693          	addi	a3,s2,16
   10768:	01c60e33          	add	t3,a2,t3
   1076c:	00890413          	addi	s0,s2,8
   10770:	00460793          	addi	a5,a2,4
   10774:	14c6fe63          	bgeu	a3,a2,108d0 <core_list_init+0x1bc>
   10778:	00860893          	addi	a7,a2,8
   1077c:	15c8fa63          	bgeu	a7,t3,108d0 <core_list_init+0x1bc>
   10780:	00f92623          	sw	a5,12(s2)
   10784:	ffff87b7          	lui	a5,0xffff8
   10788:	00092423          	sw	zero,8(s2)
   1078c:	00892023          	sw	s0,0(s2)
   10790:	fff00713          	li	a4,-1
   10794:	fff7c793          	not	a5,a5
   10798:	00e61223          	sh	a4,4(a2)
   1079c:	00f61323          	sh	a5,6(a2)
   107a0:	06050a63          	beqz	a0,10814 <core_list_init+0x100>
   107a4:	01099e93          	slli	t4,s3,0x10
   107a8:	ffff8f37          	lui	t5,0xffff8
   107ac:	010ede93          	srli	t4,t4,0x10
   107b0:	00000813          	li	a6,0
   107b4:	ffff4f13          	not	t5,t5
   107b8:	01081713          	slli	a4,a6,0x10
   107bc:	01075713          	srli	a4,a4,0x10
   107c0:	00eec7b3          	xor	a5,t4,a4
   107c4:	00379793          	slli	a5,a5,0x3
   107c8:	00777713          	andi	a4,a4,7
   107cc:	0787f793          	andi	a5,a5,120
   107d0:	00e7e7b3          	or	a5,a5,a4
   107d4:	00879593          	slli	a1,a5,0x8
   107d8:	00868713          	addi	a4,a3,8
   107dc:	00180813          	addi	a6,a6,1
   107e0:	00488313          	addi	t1,a7,4
   107e4:	00b787b3          	add	a5,a5,a1
   107e8:	02c77463          	bgeu	a4,a2,10810 <core_list_init+0xfc>
   107ec:	03c37263          	bgeu	t1,t3,10810 <core_list_init+0xfc>
   107f0:	0086a023          	sw	s0,0(a3)
   107f4:	00d92023          	sw	a3,0(s2)
   107f8:	0116a223          	sw	a7,4(a3)
   107fc:	00f89023          	sh	a5,0(a7)
   10800:	01e89123          	sh	t5,2(a7)
   10804:	00068413          	mv	s0,a3
   10808:	00030893          	mv	a7,t1
   1080c:	00070693          	mv	a3,a4
   10810:	fb0514e3          	bne	a0,a6,107b8 <core_list_init+0xa4>
   10814:	00042483          	lw	s1,0(s0)
   10818:	08048663          	beqz	s1,108a4 <core_list_init+0x190>
   1081c:	00500593          	li	a1,5
   10820:	185040ef          	jal	151a4 <__hidden___udivsi3>
   10824:	000045b7          	lui	a1,0x4
   10828:	20000713          	li	a4,512
   1082c:	00100693          	li	a3,1
   10830:	fff58593          	addi	a1,a1,-1 # 3fff <uart_tx+0x2fff>
   10834:	0300006f          	j	10864 <core_list_init+0x150>
   10838:	01069793          	slli	a5,a3,0x10
   1083c:	0004a803          	lw	a6,0(s1)
   10840:	4107d793          	srai	a5,a5,0x10
   10844:	10070713          	addi	a4,a4,256
   10848:	01071713          	slli	a4,a4,0x10
   1084c:	00f61123          	sh	a5,2(a2)
   10850:	00048413          	mv	s0,s1
   10854:	00168693          	addi	a3,a3,1
   10858:	01075713          	srli	a4,a4,0x10
   1085c:	04080463          	beqz	a6,108a4 <core_list_init+0x190>
   10860:	00080493          	mv	s1,a6
   10864:	00d9c633          	xor	a2,s3,a3
   10868:	70077793          	andi	a5,a4,1792
   1086c:	00c7e7b3          	or	a5,a5,a2
   10870:	00b7f7b3          	and	a5,a5,a1
   10874:	00442603          	lw	a2,4(s0)
   10878:	fca6e0e3          	bltu	a3,a0,10838 <core_list_init+0x124>
   1087c:	0004a803          	lw	a6,0(s1)
   10880:	01079793          	slli	a5,a5,0x10
   10884:	4107d793          	srai	a5,a5,0x10
   10888:	10070713          	addi	a4,a4,256
   1088c:	01071713          	slli	a4,a4,0x10
   10890:	00f61123          	sh	a5,2(a2)
   10894:	00048413          	mv	s0,s1
   10898:	00168693          	addi	a3,a3,1
   1089c:	01075713          	srli	a4,a4,0x10
   108a0:	fc0810e3          	bnez	a6,10860 <core_list_init+0x14c>
   108a4:	01812403          	lw	s0,24(sp)
   108a8:	01c12083          	lw	ra,28(sp)
   108ac:	01412483          	lw	s1,20(sp)
   108b0:	00c12983          	lw	s3,12(sp)
   108b4:	00090513          	mv	a0,s2
   108b8:	01012903          	lw	s2,16(sp)
   108bc:	00000613          	li	a2,0
   108c0:	fffff597          	auipc	a1,0xfffff
   108c4:	75858593          	addi	a1,a1,1880 # 10018 <cmp_idx>
   108c8:	02010113          	addi	sp,sp,32
   108cc:	a4dff06f          	j	10318 <core_list_mergesort>
   108d0:	00040693          	mv	a3,s0
   108d4:	00078893          	mv	a7,a5
   108d8:	00000413          	li	s0,0
   108dc:	ec5ff06f          	j	107a0 <core_list_init+0x8c>

000108e0 <iterate>:
   108e0:	ff010113          	addi	sp,sp,-16
   108e4:	01212023          	sw	s2,0(sp)
   108e8:	01c52903          	lw	s2,28(a0)
   108ec:	00112623          	sw	ra,12(sp)
   108f0:	02052c23          	sw	zero,56(a0)
   108f4:	02052e23          	sw	zero,60(a0)
   108f8:	04090e63          	beqz	s2,10954 <iterate+0x74>
   108fc:	00812423          	sw	s0,8(sp)
   10900:	00912223          	sw	s1,4(sp)
   10904:	00050413          	mv	s0,a0
   10908:	00000493          	li	s1,0
   1090c:	00100593          	li	a1,1
   10910:	00040513          	mv	a0,s0
   10914:	b55ff0ef          	jal	10468 <core_bench_list>
   10918:	03845583          	lhu	a1,56(s0)
   1091c:	3dd010ef          	jal	124f8 <crcu16>
   10920:	02a41c23          	sh	a0,56(s0)
   10924:	fff00593          	li	a1,-1
   10928:	00040513          	mv	a0,s0
   1092c:	b3dff0ef          	jal	10468 <core_bench_list>
   10930:	03845583          	lhu	a1,56(s0)
   10934:	3c5010ef          	jal	124f8 <crcu16>
   10938:	02a41c23          	sh	a0,56(s0)
   1093c:	00049463          	bnez	s1,10944 <iterate+0x64>
   10940:	02a41d23          	sh	a0,58(s0)
   10944:	00148493          	addi	s1,s1,1
   10948:	fc9912e3          	bne	s2,s1,1090c <iterate+0x2c>
   1094c:	00812403          	lw	s0,8(sp)
   10950:	00412483          	lw	s1,4(sp)
   10954:	00c12083          	lw	ra,12(sp)
   10958:	00012903          	lw	s2,0(sp)
   1095c:	00000513          	li	a0,0
   10960:	01010113          	addi	sp,sp,16
   10964:	00008067          	ret

00010968 <main>:
   10968:	81010113          	addi	sp,sp,-2032
   1096c:	00001737          	lui	a4,0x1
   10970:	7e112623          	sw	ra,2028(sp)
   10974:	7e812423          	sw	s0,2024(sp)
   10978:	82070693          	addi	a3,a4,-2016 # 820 <uart_tx-0x7e0>
   1097c:	7e912223          	sw	s1,2020(sp)
   10980:	7f212023          	sw	s2,2016(sp)
   10984:	7d312e23          	sw	s3,2012(sp)
   10988:	7d412c23          	sw	s4,2008(sp)
   1098c:	7d512a23          	sw	s5,2004(sp)
   10990:	7d612823          	sw	s6,2000(sp)
   10994:	7d712623          	sw	s7,1996(sp)
   10998:	7d812423          	sw	s8,1992(sp)
   1099c:	7d912223          	sw	s9,1988(sp)
   109a0:	7da12023          	sw	s10,1984(sp)
   109a4:	7bb12e23          	sw	s11,1980(sp)
   109a8:	fffff7b7          	lui	a5,0xfffff
   109ac:	f8010113          	addi	sp,sp,-128
   109b0:	00f686b3          	add	a3,a3,a5
   109b4:	01010793          	addi	a5,sp,16
   109b8:	00f687b3          	add	a5,a3,a5
   109bc:	fffff637          	lui	a2,0xfffff
   109c0:	00f12623          	sw	a5,12(sp)
   109c4:	7e860613          	addi	a2,a2,2024 # fffff7e8 <__stack_end+0xfffe77e8>
   109c8:	82070793          	addi	a5,a4,-2016
   109cc:	01010693          	addi	a3,sp,16
   109d0:	00c787b3          	add	a5,a5,a2
   109d4:	fffff5b7          	lui	a1,0xfffff
   109d8:	00d78633          	add	a2,a5,a3
   109dc:	7e458593          	addi	a1,a1,2020 # fffff7e4 <__stack_end+0xfffe77e4>
   109e0:	82070793          	addi	a5,a4,-2016
   109e4:	00b787b3          	add	a5,a5,a1
   109e8:	00d785b3          	add	a1,a5,a3
   109ec:	00c12783          	lw	a5,12(sp)
   109f0:	05e10513          	addi	a0,sp,94
   109f4:	00700413          	li	s0,7
   109f8:	7e07a223          	sw	zero,2020(a5) # fffff7e4 <__stack_end+0xfffe77e4>
   109fc:	591010ef          	jal	1278c <portable_init>
   10a00:	00100513          	li	a0,1
   10a04:	25d010ef          	jal	12460 <get_seed_32>
   10a08:	00c12703          	lw	a4,12(sp)
   10a0c:	00050793          	mv	a5,a0
   10a10:	00200513          	li	a0,2
   10a14:	7ef71623          	sh	a5,2028(a4)
   10a18:	249010ef          	jal	12460 <get_seed_32>
   10a1c:	00c12703          	lw	a4,12(sp)
   10a20:	00050793          	mv	a5,a0
   10a24:	00300513          	li	a0,3
   10a28:	7ef71723          	sh	a5,2030(a4)
   10a2c:	235010ef          	jal	12460 <get_seed_32>
   10a30:	00c12703          	lw	a4,12(sp)
   10a34:	00050793          	mv	a5,a0
   10a38:	00400513          	li	a0,4
   10a3c:	7ef71823          	sh	a5,2032(a4)
   10a40:	221010ef          	jal	12460 <get_seed_32>
   10a44:	00050793          	mv	a5,a0
   10a48:	00500513          	li	a0,5
   10a4c:	02f12c23          	sw	a5,56(sp)
   10a50:	211010ef          	jal	12460 <get_seed_32>
   10a54:	00050463          	beqz	a0,10a5c <main+0xf4>
   10a58:	00050413          	mv	s0,a0
   10a5c:	00001737          	lui	a4,0x1
   10a60:	fffff7b7          	lui	a5,0xfffff
   10a64:	82070713          	addi	a4,a4,-2016 # 820 <uart_tx-0x7e0>
   10a68:	00f70733          	add	a4,a4,a5
   10a6c:	01010793          	addi	a5,sp,16
   10a70:	00f707b3          	add	a5,a4,a5
   10a74:	00f12623          	sw	a5,12(sp)
   10a78:	7ec7a783          	lw	a5,2028(a5) # fffff7ec <__stack_end+0xfffe77ec>
   10a7c:	02812e23          	sw	s0,60(sp)
   10a80:	2c079c63          	bnez	a5,10d58 <main+0x3f0>
   10a84:	00c12783          	lw	a5,12(sp)
   10a88:	7f079783          	lh	a5,2032(a5)
   10a8c:	48078263          	beqz	a5,10f10 <main+0x5a8>
   10a90:	000016b7          	lui	a3,0x1
   10a94:	fffff737          	lui	a4,0xfffff
   10a98:	82068693          	addi	a3,a3,-2016 # 820 <uart_tx-0x7e0>
   10a9c:	00e686b3          	add	a3,a3,a4
   10aa0:	01010713          	addi	a4,sp,16
   10aa4:	00e68733          	add	a4,a3,a4
   10aa8:	06010913          	addi	s2,sp,96
   10aac:	00247793          	andi	a5,s0,2
   10ab0:	00147593          	andi	a1,s0,1
   10ab4:	00f037b3          	snez	a5,a5
   10ab8:	00e12623          	sw	a4,12(sp)
   10abc:	7f272a23          	sw	s2,2036(a4) # fffff7f4 <__stack_end+0xfffe77f4>
   10ac0:	04011e23          	sh	zero,92(sp)
   10ac4:	00447713          	andi	a4,s0,4
   10ac8:	00f585b3          	add	a1,a1,a5
   10acc:	00070863          	beqz	a4,10adc <main+0x174>
   10ad0:	00158593          	addi	a1,a1,1
   10ad4:	01059593          	slli	a1,a1,0x10
   10ad8:	0105d593          	srli	a1,a1,0x10
   10adc:	7d000513          	li	a0,2000
   10ae0:	6c4040ef          	jal	151a4 <__hidden___udivsi3>
   10ae4:	fffff7b7          	lui	a5,0xfffff
   10ae8:	00001737          	lui	a4,0x1
   10aec:	7ec78793          	addi	a5,a5,2028 # fffff7ec <__stack_end+0xfffe77ec>
   10af0:	82070713          	addi	a4,a4,-2016 # 820 <uart_tx-0x7e0>
   10af4:	00f70733          	add	a4,a4,a5
   10af8:	01010793          	addi	a5,sp,16
   10afc:	00050a13          	mv	s4,a0
   10b00:	02a12a23          	sw	a0,52(sp)
   10b04:	00f704b3          	add	s1,a4,a5
   10b08:	00000993          	li	s3,0
   10b0c:	00000a93          	li	s5,0
   10b10:	00100b93          	li	s7,1
   10b14:	00300b13          	li	s6,3
   10b18:	013b97b3          	sll	a5,s7,s3
   10b1c:	0087f7b3          	and	a5,a5,s0
   10b20:	20079a63          	bnez	a5,10d34 <main+0x3cc>
   10b24:	00198993          	addi	s3,s3,1
   10b28:	00448493          	addi	s1,s1,4
   10b2c:	ff6996e3          	bne	s3,s6,10b18 <main+0x1b0>
   10b30:	000016b7          	lui	a3,0x1
   10b34:	fffff737          	lui	a4,0xfffff
   10b38:	03c12783          	lw	a5,60(sp)
   10b3c:	82068693          	addi	a3,a3,-2016 # 820 <uart_tx-0x7e0>
   10b40:	00e686b3          	add	a3,a3,a4
   10b44:	01010713          	addi	a4,sp,16
   10b48:	00e68733          	add	a4,a3,a4
   10b4c:	00e12623          	sw	a4,12(sp)
   10b50:	0017f713          	andi	a4,a5,1
   10b54:	02070063          	beqz	a4,10b74 <main+0x20c>
   10b58:	00c12783          	lw	a5,12(sp)
   10b5c:	03412503          	lw	a0,52(sp)
   10b60:	7ec79603          	lh	a2,2028(a5)
   10b64:	7f87a583          	lw	a1,2040(a5)
   10b68:	badff0ef          	jal	10714 <core_list_init>
   10b6c:	03c12783          	lw	a5,60(sp)
   10b70:	04a12023          	sw	a0,64(sp)
   10b74:	0027f713          	andi	a4,a5,2
   10b78:	16071a63          	bnez	a4,10cec <main+0x384>
   10b7c:	0047f793          	andi	a5,a5,4
   10b80:	02078863          	beqz	a5,10bb0 <main+0x248>
   10b84:	00001737          	lui	a4,0x1
   10b88:	fffff7b7          	lui	a5,0xfffff
   10b8c:	82070713          	addi	a4,a4,-2016 # 820 <uart_tx-0x7e0>
   10b90:	00f70733          	add	a4,a4,a5
   10b94:	01010793          	addi	a5,sp,16
   10b98:	00f707b3          	add	a5,a4,a5
   10b9c:	03012603          	lw	a2,48(sp)
   10ba0:	7ec79583          	lh	a1,2028(a5) # fffff7ec <__stack_end+0xfffe77ec>
   10ba4:	03412503          	lw	a0,52(sp)
   10ba8:	00f12623          	sw	a5,12(sp)
   10bac:	2e4010ef          	jal	11e90 <core_init_state>
   10bb0:	03812783          	lw	a5,56(sp)
   10bb4:	06079c63          	bnez	a5,10c2c <main+0x2c4>
   10bb8:	00100713          	li	a4,1
   10bbc:	fffff7b7          	lui	a5,0xfffff
   10bc0:	02e12c23          	sw	a4,56(sp)
   10bc4:	00001737          	lui	a4,0x1
   10bc8:	7ec78793          	addi	a5,a5,2028 # fffff7ec <__stack_end+0xfffe77ec>
   10bcc:	82070713          	addi	a4,a4,-2016 # 820 <uart_tx-0x7e0>
   10bd0:	00f70733          	add	a4,a4,a5
   10bd4:	01010793          	addi	a5,sp,16
   10bd8:	00f707b3          	add	a5,a4,a5
   10bdc:	00f12623          	sw	a5,12(sp)
   10be0:	03812703          	lw	a4,56(sp)
   10be4:	00271793          	slli	a5,a4,0x2
   10be8:	00e787b3          	add	a5,a5,a4
   10bec:	00179793          	slli	a5,a5,0x1
   10bf0:	02f12c23          	sw	a5,56(sp)
   10bf4:	351010ef          	jal	12744 <start_time>
   10bf8:	00c12503          	lw	a0,12(sp)
   10bfc:	ce5ff0ef          	jal	108e0 <iterate>
   10c00:	351010ef          	jal	12750 <stop_time>
   10c04:	359010ef          	jal	1275c <get_time>
   10c08:	365010ef          	jal	1276c <time_in_secs>
   10c0c:	fc050ae3          	beqz	a0,10be0 <main+0x278>
   10c10:	00050593          	mv	a1,a0
   10c14:	00a00513          	li	a0,10
   10c18:	58c040ef          	jal	151a4 <__hidden___udivsi3>
   10c1c:	03812583          	lw	a1,56(sp)
   10c20:	00150513          	addi	a0,a0,1
   10c24:	554040ef          	jal	15178 <__mulsi3>
   10c28:	02a12c23          	sw	a0,56(sp)
   10c2c:	319010ef          	jal	12744 <start_time>
   10c30:	00001437          	lui	s0,0x1
   10c34:	fffff537          	lui	a0,0xfffff
   10c38:	7ec50513          	addi	a0,a0,2028 # fffff7ec <__stack_end+0xfffe77ec>
   10c3c:	82040793          	addi	a5,s0,-2016 # 820 <uart_tx-0x7e0>
   10c40:	00a787b3          	add	a5,a5,a0
   10c44:	01010713          	addi	a4,sp,16
   10c48:	00e78533          	add	a0,a5,a4
   10c4c:	c95ff0ef          	jal	108e0 <iterate>
   10c50:	301010ef          	jal	12750 <stop_time>
   10c54:	309010ef          	jal	1275c <get_time>
   10c58:	fffff7b7          	lui	a5,0xfffff
   10c5c:	82040713          	addi	a4,s0,-2016
   10c60:	00f70733          	add	a4,a4,a5
   10c64:	01010793          	addi	a5,sp,16
   10c68:	00f707b3          	add	a5,a4,a5
   10c6c:	00050913          	mv	s2,a0
   10c70:	7ec79503          	lh	a0,2028(a5) # fffff7ec <__stack_end+0xfffe77ec>
   10c74:	00000593          	li	a1,0
   10c78:	00f12623          	sw	a5,12(sp)
   10c7c:	225010ef          	jal	126a0 <crc16>
   10c80:	00c12783          	lw	a5,12(sp)
   10c84:	00050593          	mv	a1,a0
   10c88:	7ee79503          	lh	a0,2030(a5)
   10c8c:	215010ef          	jal	126a0 <crc16>
   10c90:	00c12783          	lw	a5,12(sp)
   10c94:	00050593          	mv	a1,a0
   10c98:	7f079503          	lh	a0,2032(a5)
   10c9c:	205010ef          	jal	126a0 <crc16>
   10ca0:	00050593          	mv	a1,a0
   10ca4:	03411503          	lh	a0,52(sp)
   10ca8:	1f9010ef          	jal	126a0 <crc16>
   10cac:	000087b7          	lui	a5,0x8
   10cb0:	b0578793          	addi	a5,a5,-1275 # 7b05 <uart_tx+0x6b05>
   10cb4:	00050993          	mv	s3,a0
   10cb8:	62f50663          	beq	a0,a5,112e4 <main+0x97c>
   10cbc:	0ca7f663          	bgeu	a5,a0,10d88 <main+0x420>
   10cc0:	000097b7          	lui	a5,0x9
   10cc4:	a0278793          	addi	a5,a5,-1534 # 8a02 <uart_tx+0x7a02>
   10cc8:	60f50463          	beq	a0,a5,112d0 <main+0x968>
   10ccc:	0000f7b7          	lui	a5,0xf
   10cd0:	9f578793          	addi	a5,a5,-1547 # e9f5 <uart_tx+0xd9f5>
   10cd4:	24f51663          	bne	a0,a5,10f20 <main+0x5b8>
   10cd8:	00005517          	auipc	a0,0x5
   10cdc:	ff050513          	addi	a0,a0,-16 # 15cc8 <__subdf3+0x838>
   10ce0:	5f5010ef          	jal	12ad4 <ee_printf>
   10ce4:	00300793          	li	a5,3
   10ce8:	0c80006f          	j	10db0 <main+0x448>
   10cec:	00001737          	lui	a4,0x1
   10cf0:	fffff7b7          	lui	a5,0xfffff
   10cf4:	82070713          	addi	a4,a4,-2016 # 820 <uart_tx-0x7e0>
   10cf8:	00f70733          	add	a4,a4,a5
   10cfc:	01010793          	addi	a5,sp,16
   10d00:	00f707b3          	add	a5,a4,a5
   10d04:	00f12623          	sw	a5,12(sp)
   10d08:	00c12703          	lw	a4,12(sp)
   10d0c:	7ee79783          	lh	a5,2030(a5) # fffff7ee <__stack_end+0xfffe77ee>
   10d10:	03412503          	lw	a0,52(sp)
   10d14:	7ec71603          	lh	a2,2028(a4)
   10d18:	7fc72583          	lw	a1,2044(a4)
   10d1c:	01079793          	slli	a5,a5,0x10
   10d20:	00c7e633          	or	a2,a5,a2
   10d24:	04410693          	addi	a3,sp,68
   10d28:	5f8000ef          	jal	11320 <core_init_matrix>
   10d2c:	03c12783          	lw	a5,60(sp)
   10d30:	e4dff06f          	j	10b7c <main+0x214>
   10d34:	000a8513          	mv	a0,s5
   10d38:	000a0593          	mv	a1,s4
   10d3c:	43c040ef          	jal	15178 <__mulsi3>
   10d40:	001a8a93          	addi	s5,s5,1
   10d44:	00a90533          	add	a0,s2,a0
   10d48:	010a9a93          	slli	s5,s5,0x10
   10d4c:	00a4a623          	sw	a0,12(s1)
   10d50:	010ada93          	srli	s5,s5,0x10
   10d54:	dd1ff06f          	j	10b24 <main+0x1bc>
   10d58:	00100713          	li	a4,1
   10d5c:	d2e79ae3          	bne	a5,a4,10a90 <main+0x128>
   10d60:	00c12783          	lw	a5,12(sp)
   10d64:	7f079783          	lh	a5,2032(a5)
   10d68:	d20794e3          	bnez	a5,10a90 <main+0x128>
   10d6c:	00c12703          	lw	a4,12(sp)
   10d70:	341537b7          	lui	a5,0x34153
   10d74:	41578793          	addi	a5,a5,1045 # 34153415 <__stack_end+0x3413b415>
   10d78:	7ef72623          	sw	a5,2028(a4)
   10d7c:	06600793          	li	a5,102
   10d80:	7ef71823          	sh	a5,2032(a4)
   10d84:	d0dff06f          	j	10a90 <main+0x128>
   10d88:	000027b7          	lui	a5,0x2
   10d8c:	8f278793          	addi	a5,a5,-1806 # 18f2 <uart_tx+0x8f2>
   10d90:	56f50463          	beq	a0,a5,112f8 <main+0x990>
   10d94:	000057b7          	lui	a5,0x5
   10d98:	eaf78793          	addi	a5,a5,-337 # 4eaf <uart_tx+0x3eaf>
   10d9c:	18f51263          	bne	a0,a5,10f20 <main+0x5b8>
   10da0:	00005517          	auipc	a0,0x5
   10da4:	ef450513          	addi	a0,a0,-268 # 15c94 <__subdf3+0x804>
   10da8:	52d010ef          	jal	12ad4 <ee_printf>
   10dac:	00200793          	li	a5,2
   10db0:	13118c13          	addi	s8,gp,305 # 16568 <default_num_contexts>
   10db4:	000c2703          	lw	a4,0(s8)
   10db8:	54070a63          	beqz	a4,1130c <main+0x9a4>
   10dbc:	000016b7          	lui	a3,0x1
   10dc0:	fffff737          	lui	a4,0xfffff
   10dc4:	82068693          	addi	a3,a3,-2016 # 820 <uart_tx-0x7e0>
   10dc8:	00e686b3          	add	a3,a3,a4
   10dcc:	01010713          	addi	a4,sp,16
   10dd0:	00179793          	slli	a5,a5,0x1
   10dd4:	00e68733          	add	a4,a3,a4
   10dd8:	d6918d13          	addi	s10,gp,-663 # 161a0 <list_known_crc>
   10ddc:	00000d93          	li	s11,0
   10de0:	00000b93          	li	s7,0
   10de4:	00e12623          	sw	a4,12(sp)
   10de8:	00001cb7          	lui	s9,0x1
   10dec:	00fd0d33          	add	s10,s10,a5
   10df0:	00005b17          	auipc	s6,0x5
   10df4:	f34b0b13          	addi	s6,s6,-204 # 15d24 <__subdf3+0x894>
   10df8:	00005a97          	auipc	s5,0x5
   10dfc:	f5ca8a93          	addi	s5,s5,-164 # 15d54 <__subdf3+0x8c4>
   10e00:	00005a17          	auipc	s4,0x5
   10e04:	f88a0a13          	addi	s4,s4,-120 # 15d88 <__subdf3+0x8f8>
   10e08:	0440006f          	j	10e4c <main+0x4e4>
   10e0c:	00c12703          	lw	a4,12(sp)
   10e10:	017407b3          	add	a5,s0,s7
   10e14:	00279793          	slli	a5,a5,0x2
   10e18:	00f707b3          	add	a5,a4,a5
   10e1c:	00fc87b3          	add	a5,s9,a5
   10e20:	82c7d783          	lhu	a5,-2004(a5)
   10e24:	001b8b93          	addi	s7,s7,1
   10e28:	000c2703          	lw	a4,0(s8)
   10e2c:	01b787b3          	add	a5,a5,s11
   10e30:	010b9b93          	slli	s7,s7,0x10
   10e34:	01079493          	slli	s1,a5,0x10
   10e38:	01079d93          	slli	s11,a5,0x10
   10e3c:	010bdb93          	srli	s7,s7,0x10
   10e40:	0104d493          	srli	s1,s1,0x10
   10e44:	410ddd93          	srai	s11,s11,0x10
   10e48:	0eebf263          	bgeu	s7,a4,10f2c <main+0x5c4>
   10e4c:	00c12783          	lw	a5,12(sp)
   10e50:	004b9413          	slli	s0,s7,0x4
   10e54:	017404b3          	add	s1,s0,s7
   10e58:	00249493          	slli	s1,s1,0x2
   10e5c:	009784b3          	add	s1,a5,s1
   10e60:	009c84b3          	add	s1,s9,s1
   10e64:	80c4a783          	lw	a5,-2036(s1)
   10e68:	82049623          	sh	zero,-2004(s1)
   10e6c:	0017f713          	andi	a4,a5,1
   10e70:	02070663          	beqz	a4,10e9c <main+0x534>
   10e74:	8264d603          	lhu	a2,-2010(s1)
   10e78:	000d5683          	lhu	a3,0(s10)
   10e7c:	02d60063          	beq	a2,a3,10e9c <main+0x534>
   10e80:	000b8593          	mv	a1,s7
   10e84:	000b0513          	mv	a0,s6
   10e88:	44d010ef          	jal	12ad4 <ee_printf>
   10e8c:	82c4d703          	lhu	a4,-2004(s1)
   10e90:	80c4a783          	lw	a5,-2036(s1)
   10e94:	00170713          	addi	a4,a4,1 # fffff001 <__stack_end+0xfffe7001>
   10e98:	82e49623          	sh	a4,-2004(s1)
   10e9c:	0027f713          	andi	a4,a5,2
   10ea0:	04070063          	beqz	a4,10ee0 <main+0x578>
   10ea4:	00c12703          	lw	a4,12(sp)
   10ea8:	017404b3          	add	s1,s0,s7
   10eac:	00249493          	slli	s1,s1,0x2
   10eb0:	009704b3          	add	s1,a4,s1
   10eb4:	009c84b3          	add	s1,s9,s1
   10eb8:	8284d603          	lhu	a2,-2008(s1)
   10ebc:	00cd5683          	lhu	a3,12(s10)
   10ec0:	02d60063          	beq	a2,a3,10ee0 <main+0x578>
   10ec4:	000b8593          	mv	a1,s7
   10ec8:	000a8513          	mv	a0,s5
   10ecc:	409010ef          	jal	12ad4 <ee_printf>
   10ed0:	82c4d703          	lhu	a4,-2004(s1)
   10ed4:	80c4a783          	lw	a5,-2036(s1)
   10ed8:	00170713          	addi	a4,a4,1
   10edc:	82e49623          	sh	a4,-2004(s1)
   10ee0:	0047f793          	andi	a5,a5,4
   10ee4:	f20784e3          	beqz	a5,10e0c <main+0x4a4>
   10ee8:	00c12783          	lw	a5,12(sp)
   10eec:	01740433          	add	s0,s0,s7
   10ef0:	00241413          	slli	s0,s0,0x2
   10ef4:	00878433          	add	s0,a5,s0
   10ef8:	008c8433          	add	s0,s9,s0
   10efc:	82a45603          	lhu	a2,-2006(s0)
   10f00:	018d5683          	lhu	a3,24(s10)
   10f04:	32d61e63          	bne	a2,a3,11240 <main+0x8d8>
   10f08:	82c45783          	lhu	a5,-2004(s0)
   10f0c:	f19ff06f          	j	10e24 <main+0x4bc>
   10f10:	00c12703          	lw	a4,12(sp)
   10f14:	06600793          	li	a5,102
   10f18:	7ef71823          	sh	a5,2032(a4)
   10f1c:	b75ff06f          	j	10a90 <main+0x128>
   10f20:	00010437          	lui	s0,0x10
   10f24:	fff40493          	addi	s1,s0,-1 # ffff <uart_tx+0xefff>
   10f28:	13118c13          	addi	s8,gp,305 # 16568 <default_num_contexts>
   10f2c:	009010ef          	jal	12734 <check_data_types>
   10f30:	03412583          	lw	a1,52(sp)
   10f34:	009504b3          	add	s1,a0,s1
   10f38:	00005517          	auipc	a0,0x5
   10f3c:	e8050513          	addi	a0,a0,-384 # 15db8 <__subdf3+0x928>
   10f40:	395010ef          	jal	12ad4 <ee_printf>
   10f44:	00090593          	mv	a1,s2
   10f48:	00005517          	auipc	a0,0x5
   10f4c:	e8850513          	addi	a0,a0,-376 # 15dd0 <__subdf3+0x940>
   10f50:	385010ef          	jal	12ad4 <ee_printf>
   10f54:	00090513          	mv	a0,s2
   10f58:	015010ef          	jal	1276c <time_in_secs>
   10f5c:	00050593          	mv	a1,a0
   10f60:	00005517          	auipc	a0,0x5
   10f64:	e8850513          	addi	a0,a0,-376 # 15de8 <__subdf3+0x958>
   10f68:	36d010ef          	jal	12ad4 <ee_printf>
   10f6c:	01049493          	slli	s1,s1,0x10
   10f70:	00090513          	mv	a0,s2
   10f74:	0104d493          	srli	s1,s1,0x10
   10f78:	7f4010ef          	jal	1276c <time_in_secs>
   10f7c:	30051e63          	bnez	a0,11298 <main+0x930>
   10f80:	00090513          	mv	a0,s2
   10f84:	7e8010ef          	jal	1276c <time_in_secs>
   10f88:	00900793          	li	a5,9
   10f8c:	2ea7fc63          	bgeu	a5,a0,11284 <main+0x91c>
   10f90:	000c2583          	lw	a1,0(s8)
   10f94:	03812503          	lw	a0,56(sp)
   10f98:	01049493          	slli	s1,s1,0x10
   10f9c:	4104d493          	srai	s1,s1,0x10
   10fa0:	1d8040ef          	jal	15178 <__mulsi3>
   10fa4:	00050593          	mv	a1,a0
   10fa8:	00005517          	auipc	a0,0x5
   10fac:	eb050513          	addi	a0,a0,-336 # 15e58 <__subdf3+0x9c8>
   10fb0:	325010ef          	jal	12ad4 <ee_printf>
   10fb4:	00005597          	auipc	a1,0x5
   10fb8:	ebc58593          	addi	a1,a1,-324 # 15e70 <__subdf3+0x9e0>
   10fbc:	00005517          	auipc	a0,0x5
   10fc0:	ec050513          	addi	a0,a0,-320 # 15e7c <__subdf3+0x9ec>
   10fc4:	311010ef          	jal	12ad4 <ee_printf>
   10fc8:	00005597          	auipc	a1,0x5
   10fcc:	ecc58593          	addi	a1,a1,-308 # 15e94 <__subdf3+0xa04>
   10fd0:	00005517          	auipc	a0,0x5
   10fd4:	f2850513          	addi	a0,a0,-216 # 15ef8 <__subdf3+0xa68>
   10fd8:	2fd010ef          	jal	12ad4 <ee_printf>
   10fdc:	00005597          	auipc	a1,0x5
   10fe0:	f3458593          	addi	a1,a1,-204 # 15f10 <__subdf3+0xa80>
   10fe4:	00005517          	auipc	a0,0x5
   10fe8:	f3450513          	addi	a0,a0,-204 # 15f18 <__subdf3+0xa88>
   10fec:	2e9010ef          	jal	12ad4 <ee_printf>
   10ff0:	00098593          	mv	a1,s3
   10ff4:	00005517          	auipc	a0,0x5
   10ff8:	f3c50513          	addi	a0,a0,-196 # 15f30 <__subdf3+0xaa0>
   10ffc:	2d9010ef          	jal	12ad4 <ee_printf>
   11000:	03c12783          	lw	a5,60(sp)
   11004:	0017f713          	andi	a4,a5,1
   11008:	06070c63          	beqz	a4,11080 <main+0x718>
   1100c:	000c2703          	lw	a4,0(s8)
   11010:	06070863          	beqz	a4,11080 <main+0x718>
   11014:	00001737          	lui	a4,0x1
   11018:	fffff7b7          	lui	a5,0xfffff
   1101c:	82070713          	addi	a4,a4,-2016 # 820 <uart_tx-0x7e0>
   11020:	00f70733          	add	a4,a4,a5
   11024:	01010793          	addi	a5,sp,16
   11028:	00f707b3          	add	a5,a4,a5
   1102c:	00000413          	li	s0,0
   11030:	00f12623          	sw	a5,12(sp)
   11034:	000019b7          	lui	s3,0x1
   11038:	00005917          	auipc	s2,0x5
   1103c:	f1490913          	addi	s2,s2,-236 # 15f4c <__subdf3+0xabc>
   11040:	00c12703          	lw	a4,12(sp)
   11044:	00441793          	slli	a5,s0,0x4
   11048:	008787b3          	add	a5,a5,s0
   1104c:	00279793          	slli	a5,a5,0x2
   11050:	00f707b3          	add	a5,a4,a5
   11054:	00f987b3          	add	a5,s3,a5
   11058:	8267d603          	lhu	a2,-2010(a5) # ffffe826 <__stack_end+0xfffe6826>
   1105c:	00040593          	mv	a1,s0
   11060:	00090513          	mv	a0,s2
   11064:	271010ef          	jal	12ad4 <ee_printf>
   11068:	00140413          	addi	s0,s0,1
   1106c:	000c2783          	lw	a5,0(s8)
   11070:	01041413          	slli	s0,s0,0x10
   11074:	01045413          	srli	s0,s0,0x10
   11078:	fcf464e3          	bltu	s0,a5,11040 <main+0x6d8>
   1107c:	03c12783          	lw	a5,60(sp)
   11080:	0027f713          	andi	a4,a5,2
   11084:	06070c63          	beqz	a4,110fc <main+0x794>
   11088:	000c2703          	lw	a4,0(s8)
   1108c:	28070463          	beqz	a4,11314 <main+0x9ac>
   11090:	00001737          	lui	a4,0x1
   11094:	fffff7b7          	lui	a5,0xfffff
   11098:	82070713          	addi	a4,a4,-2016 # 820 <uart_tx-0x7e0>
   1109c:	00f70733          	add	a4,a4,a5
   110a0:	01010793          	addi	a5,sp,16
   110a4:	00f707b3          	add	a5,a4,a5
   110a8:	00000413          	li	s0,0
   110ac:	00f12623          	sw	a5,12(sp)
   110b0:	000019b7          	lui	s3,0x1
   110b4:	00005917          	auipc	s2,0x5
   110b8:	eb490913          	addi	s2,s2,-332 # 15f68 <__subdf3+0xad8>
   110bc:	00c12703          	lw	a4,12(sp)
   110c0:	00441793          	slli	a5,s0,0x4
   110c4:	008787b3          	add	a5,a5,s0
   110c8:	00279793          	slli	a5,a5,0x2
   110cc:	00f707b3          	add	a5,a4,a5
   110d0:	00f987b3          	add	a5,s3,a5
   110d4:	8287d603          	lhu	a2,-2008(a5) # ffffe828 <__stack_end+0xfffe6828>
   110d8:	00040593          	mv	a1,s0
   110dc:	00090513          	mv	a0,s2
   110e0:	1f5010ef          	jal	12ad4 <ee_printf>
   110e4:	00140413          	addi	s0,s0,1
   110e8:	000c2783          	lw	a5,0(s8)
   110ec:	01041413          	slli	s0,s0,0x10
   110f0:	01045413          	srli	s0,s0,0x10
   110f4:	fcf464e3          	bltu	s0,a5,110bc <main+0x754>
   110f8:	03c12783          	lw	a5,60(sp)
   110fc:	0047f793          	andi	a5,a5,4
   11100:	000c2703          	lw	a4,0(s8)
   11104:	06078863          	beqz	a5,11174 <main+0x80c>
   11108:	00000413          	li	s0,0
   1110c:	0c070c63          	beqz	a4,111e4 <main+0x87c>
   11110:	00001737          	lui	a4,0x1
   11114:	fffff7b7          	lui	a5,0xfffff
   11118:	82070713          	addi	a4,a4,-2016 # 820 <uart_tx-0x7e0>
   1111c:	00f70733          	add	a4,a4,a5
   11120:	01010793          	addi	a5,sp,16
   11124:	00f707b3          	add	a5,a4,a5
   11128:	00f12623          	sw	a5,12(sp)
   1112c:	000019b7          	lui	s3,0x1
   11130:	00005917          	auipc	s2,0x5
   11134:	e5490913          	addi	s2,s2,-428 # 15f84 <__subdf3+0xaf4>
   11138:	00c12703          	lw	a4,12(sp)
   1113c:	00441793          	slli	a5,s0,0x4
   11140:	008787b3          	add	a5,a5,s0
   11144:	00279793          	slli	a5,a5,0x2
   11148:	00f707b3          	add	a5,a4,a5
   1114c:	00f987b3          	add	a5,s3,a5
   11150:	82a7d603          	lhu	a2,-2006(a5) # ffffe82a <__stack_end+0xfffe682a>
   11154:	00040593          	mv	a1,s0
   11158:	00090513          	mv	a0,s2
   1115c:	179010ef          	jal	12ad4 <ee_printf>
   11160:	00140413          	addi	s0,s0,1
   11164:	000c2783          	lw	a5,0(s8)
   11168:	01041413          	slli	s0,s0,0x10
   1116c:	01045413          	srli	s0,s0,0x10
   11170:	fcf464e3          	bltu	s0,a5,11138 <main+0x7d0>
   11174:	000c2783          	lw	a5,0(s8)
   11178:	00000413          	li	s0,0
   1117c:	06078463          	beqz	a5,111e4 <main+0x87c>
   11180:	00001737          	lui	a4,0x1
   11184:	fffff7b7          	lui	a5,0xfffff
   11188:	82070713          	addi	a4,a4,-2016 # 820 <uart_tx-0x7e0>
   1118c:	00f70733          	add	a4,a4,a5
   11190:	01010793          	addi	a5,sp,16
   11194:	00f707b3          	add	a5,a4,a5
   11198:	00f12623          	sw	a5,12(sp)
   1119c:	000019b7          	lui	s3,0x1
   111a0:	00005917          	auipc	s2,0x5
   111a4:	e0090913          	addi	s2,s2,-512 # 15fa0 <__subdf3+0xb10>
   111a8:	00c12703          	lw	a4,12(sp)
   111ac:	00441793          	slli	a5,s0,0x4
   111b0:	008787b3          	add	a5,a5,s0
   111b4:	00279793          	slli	a5,a5,0x2
   111b8:	00f707b3          	add	a5,a4,a5
   111bc:	00f987b3          	add	a5,s3,a5
   111c0:	8247d603          	lhu	a2,-2012(a5) # ffffe824 <__stack_end+0xfffe6824>
   111c4:	00040593          	mv	a1,s0
   111c8:	00090513          	mv	a0,s2
   111cc:	109010ef          	jal	12ad4 <ee_printf>
   111d0:	00140413          	addi	s0,s0,1
   111d4:	000c2783          	lw	a5,0(s8)
   111d8:	01041413          	slli	s0,s0,0x10
   111dc:	01045413          	srli	s0,s0,0x10
   111e0:	fcf464e3          	bltu	s0,a5,111a8 <main+0x840>
   111e4:	08048863          	beqz	s1,11274 <main+0x90c>
   111e8:	06904e63          	bgtz	s1,11264 <main+0x8fc>
   111ec:	00005517          	auipc	a0,0x5
   111f0:	e1c50513          	addi	a0,a0,-484 # 16008 <__subdf3+0xb78>
   111f4:	0e1010ef          	jal	12ad4 <ee_printf>
   111f8:	05e10513          	addi	a0,sp,94
   111fc:	59c010ef          	jal	12798 <portable_fini>
   11200:	08010113          	addi	sp,sp,128
   11204:	7ec12083          	lw	ra,2028(sp)
   11208:	7e812403          	lw	s0,2024(sp)
   1120c:	7e412483          	lw	s1,2020(sp)
   11210:	7e012903          	lw	s2,2016(sp)
   11214:	7dc12983          	lw	s3,2012(sp)
   11218:	7d812a03          	lw	s4,2008(sp)
   1121c:	7d412a83          	lw	s5,2004(sp)
   11220:	7d012b03          	lw	s6,2000(sp)
   11224:	7cc12b83          	lw	s7,1996(sp)
   11228:	7c812c03          	lw	s8,1992(sp)
   1122c:	7c412c83          	lw	s9,1988(sp)
   11230:	7c012d03          	lw	s10,1984(sp)
   11234:	7bc12d83          	lw	s11,1980(sp)
   11238:	7f010113          	addi	sp,sp,2032
   1123c:	00008067          	ret
   11240:	000b8593          	mv	a1,s7
   11244:	000a0513          	mv	a0,s4
   11248:	08d010ef          	jal	12ad4 <ee_printf>
   1124c:	82c45783          	lhu	a5,-2004(s0)
   11250:	00178793          	addi	a5,a5,1
   11254:	01079793          	slli	a5,a5,0x10
   11258:	0107d793          	srli	a5,a5,0x10
   1125c:	82f41623          	sh	a5,-2004(s0)
   11260:	bc5ff06f          	j	10e24 <main+0x4bc>
   11264:	00005517          	auipc	a0,0x5
   11268:	e0850513          	addi	a0,a0,-504 # 1606c <__subdf3+0xbdc>
   1126c:	069010ef          	jal	12ad4 <ee_printf>
   11270:	f89ff06f          	j	111f8 <main+0x890>
   11274:	00005517          	auipc	a0,0x5
   11278:	d4850513          	addi	a0,a0,-696 # 15fbc <__subdf3+0xb2c>
   1127c:	059010ef          	jal	12ad4 <ee_printf>
   11280:	f79ff06f          	j	111f8 <main+0x890>
   11284:	00005517          	auipc	a0,0x5
   11288:	b9450513          	addi	a0,a0,-1132 # 15e18 <__subdf3+0x988>
   1128c:	049010ef          	jal	12ad4 <ee_printf>
   11290:	00148493          	addi	s1,s1,1
   11294:	cfdff06f          	j	10f90 <main+0x628>
   11298:	000c2583          	lw	a1,0(s8)
   1129c:	03812503          	lw	a0,56(sp)
   112a0:	6d9030ef          	jal	15178 <__mulsi3>
   112a4:	00050413          	mv	s0,a0
   112a8:	00090513          	mv	a0,s2
   112ac:	4c0010ef          	jal	1276c <time_in_secs>
   112b0:	00050593          	mv	a1,a0
   112b4:	00040513          	mv	a0,s0
   112b8:	6ed030ef          	jal	151a4 <__hidden___udivsi3>
   112bc:	00050593          	mv	a1,a0
   112c0:	00005517          	auipc	a0,0x5
   112c4:	b4050513          	addi	a0,a0,-1216 # 15e00 <__subdf3+0x970>
   112c8:	00d010ef          	jal	12ad4 <ee_printf>
   112cc:	cb5ff06f          	j	10f80 <main+0x618>
   112d0:	00005517          	auipc	a0,0x5
   112d4:	96850513          	addi	a0,a0,-1688 # 15c38 <__subdf3+0x7a8>
   112d8:	7fc010ef          	jal	12ad4 <ee_printf>
   112dc:	00000793          	li	a5,0
   112e0:	ad1ff06f          	j	10db0 <main+0x448>
   112e4:	00005517          	auipc	a0,0x5
   112e8:	98450513          	addi	a0,a0,-1660 # 15c68 <__subdf3+0x7d8>
   112ec:	7e8010ef          	jal	12ad4 <ee_printf>
   112f0:	00100793          	li	a5,1
   112f4:	abdff06f          	j	10db0 <main+0x448>
   112f8:	00005517          	auipc	a0,0x5
   112fc:	a0050513          	addi	a0,a0,-1536 # 15cf8 <__subdf3+0x868>
   11300:	7d4010ef          	jal	12ad4 <ee_printf>
   11304:	00400793          	li	a5,4
   11308:	aa9ff06f          	j	10db0 <main+0x448>
   1130c:	00000493          	li	s1,0
   11310:	c1dff06f          	j	10f2c <main+0x5c4>
   11314:	0047f793          	andi	a5,a5,4
   11318:	e4078ee3          	beqz	a5,11174 <main+0x80c>
   1131c:	ec9ff06f          	j	111e4 <main+0x87c>

00011320 <core_init_matrix>:
   11320:	fb010113          	addi	sp,sp,-80
   11324:	04912223          	sw	s1,68(sp)
   11328:	03712623          	sw	s7,44(sp)
   1132c:	03a12023          	sw	s10,32(sp)
   11330:	01b12e23          	sw	s11,28(sp)
   11334:	04112623          	sw	ra,76(sp)
   11338:	04812423          	sw	s0,72(sp)
   1133c:	03312e23          	sw	s3,60(sp)
   11340:	00050493          	mv	s1,a0
   11344:	00058b93          	mv	s7,a1
   11348:	00068d13          	mv	s10,a3
   1134c:	00060d93          	mv	s11,a2
   11350:	00061463          	bnez	a2,11358 <core_init_matrix+0x38>
   11354:	00100d93          	li	s11,1
   11358:	00000413          	li	s0,0
   1135c:	16048e63          	beqz	s1,114d8 <core_init_matrix+0x1b8>
   11360:	00040993          	mv	s3,s0
   11364:	00140413          	addi	s0,s0,1
   11368:	00040593          	mv	a1,s0
   1136c:	00040513          	mv	a0,s0
   11370:	609030ef          	jal	15178 <__mulsi3>
   11374:	00351513          	slli	a0,a0,0x3
   11378:	fe9564e3          	bltu	a0,s1,11360 <core_init_matrix+0x40>
   1137c:	00098593          	mv	a1,s3
   11380:	00098513          	mv	a0,s3
   11384:	5f5030ef          	jal	15178 <__mulsi3>
   11388:	fffb8793          	addi	a5,s7,-1
   1138c:	ffc7f793          	andi	a5,a5,-4
   11390:	00478793          	addi	a5,a5,4
   11394:	00151713          	slli	a4,a0,0x1
   11398:	00f12423          	sw	a5,8(sp)
   1139c:	00078493          	mv	s1,a5
   113a0:	00e787b3          	add	a5,a5,a4
   113a4:	00e12223          	sw	a4,4(sp)
   113a8:	01312623          	sw	s3,12(sp)
   113ac:	00f12023          	sw	a5,0(sp)
   113b0:	12098063          	beqz	s3,114d0 <core_init_matrix+0x1b0>
   113b4:	05212023          	sw	s2,64(sp)
   113b8:	03412c23          	sw	s4,56(sp)
   113bc:	03512a23          	sw	s5,52(sp)
   113c0:	03612823          	sw	s6,48(sp)
   113c4:	03812423          	sw	s8,40(sp)
   113c8:	03912223          	sw	s9,36(sp)
   113cc:	00012783          	lw	a5,0(sp)
   113d0:	00010937          	lui	s2,0x10
   113d4:	00198413          	addi	s0,s3,1 # 1001 <uart_tx+0x1>
   113d8:	00199c93          	slli	s9,s3,0x1
   113dc:	00078a13          	mv	s4,a5
   113e0:	00000a93          	li	s5,0
   113e4:	00100c13          	li	s8,1
   113e8:	40f484b3          	sub	s1,s1,a5
   113ec:	fff90913          	addi	s2,s2,-1 # ffff <uart_tx+0xefff>
   113f0:	000c0b13          	mv	s6,s8
   113f4:	000a0b93          	mv	s7,s4
   113f8:	000c0593          	mv	a1,s8
   113fc:	000d8513          	mv	a0,s11
   11400:	579030ef          	jal	15178 <__mulsi3>
   11404:	41f55713          	srai	a4,a0,0x1f
   11408:	01075713          	srli	a4,a4,0x10
   1140c:	00e50633          	add	a2,a0,a4
   11410:	010c1793          	slli	a5,s8,0x10
   11414:	01267633          	and	a2,a2,s2
   11418:	0107d793          	srli	a5,a5,0x10
   1141c:	40e60db3          	sub	s11,a2,a4
   11420:	01b78733          	add	a4,a5,s11
   11424:	01071713          	slli	a4,a4,0x10
   11428:	01075713          	srli	a4,a4,0x10
   1142c:	00f707b3          	add	a5,a4,a5
   11430:	00eb9023          	sh	a4,0(s7)
   11434:	0ff7f793          	zext.b	a5,a5
   11438:	01748733          	add	a4,s1,s7
   1143c:	00f71023          	sh	a5,0(a4)
   11440:	001c0c13          	addi	s8,s8,1
   11444:	002b8b93          	addi	s7,s7,2
   11448:	fa8c18e3          	bne	s8,s0,113f8 <core_init_matrix+0xd8>
   1144c:	001a8a93          	addi	s5,s5,1
   11450:	01698c33          	add	s8,s3,s6
   11454:	01340433          	add	s0,s0,s3
   11458:	019a0a33          	add	s4,s4,s9
   1145c:	f93a9ae3          	bne	s5,s3,113f0 <core_init_matrix+0xd0>
   11460:	04012903          	lw	s2,64(sp)
   11464:	03812a03          	lw	s4,56(sp)
   11468:	03412a83          	lw	s5,52(sp)
   1146c:	03012b03          	lw	s6,48(sp)
   11470:	02812c03          	lw	s8,40(sp)
   11474:	02412c83          	lw	s9,36(sp)
   11478:	00012703          	lw	a4,0(sp)
   1147c:	00412783          	lw	a5,4(sp)
   11480:	00812683          	lw	a3,8(sp)
   11484:	04c12083          	lw	ra,76(sp)
   11488:	00f707b3          	add	a5,a4,a5
   1148c:	fff78793          	addi	a5,a5,-1
   11490:	ffc7f793          	andi	a5,a5,-4
   11494:	00478793          	addi	a5,a5,4
   11498:	00fd2623          	sw	a5,12(s10)
   1149c:	00c12783          	lw	a5,12(sp)
   114a0:	04812403          	lw	s0,72(sp)
   114a4:	00dd2223          	sw	a3,4(s10)
   114a8:	00ed2423          	sw	a4,8(s10)
   114ac:	00fd2023          	sw	a5,0(s10)
   114b0:	04412483          	lw	s1,68(sp)
   114b4:	02c12b83          	lw	s7,44(sp)
   114b8:	02012d03          	lw	s10,32(sp)
   114bc:	01c12d83          	lw	s11,28(sp)
   114c0:	00098513          	mv	a0,s3
   114c4:	03c12983          	lw	s3,60(sp)
   114c8:	05010113          	addi	sp,sp,80
   114cc:	00008067          	ret
   114d0:	00012223          	sw	zero,4(sp)
   114d4:	fa5ff06f          	j	11478 <core_init_matrix+0x158>
   114d8:	fffb8b93          	addi	s7,s7,-1
   114dc:	ffcbfb93          	andi	s7,s7,-4
   114e0:	006b8793          	addi	a5,s7,6
   114e4:	00f12023          	sw	a5,0(sp)
   114e8:	fff00793          	li	a5,-1
   114ec:	004b8493          	addi	s1,s7,4
   114f0:	00f12623          	sw	a5,12(sp)
   114f4:	00200793          	li	a5,2
   114f8:	05212023          	sw	s2,64(sp)
   114fc:	03412c23          	sw	s4,56(sp)
   11500:	03512a23          	sw	s5,52(sp)
   11504:	03612823          	sw	s6,48(sp)
   11508:	03812423          	sw	s8,40(sp)
   1150c:	03912223          	sw	s9,36(sp)
   11510:	00912423          	sw	s1,8(sp)
   11514:	00f12223          	sw	a5,4(sp)
   11518:	fff00993          	li	s3,-1
   1151c:	eb1ff06f          	j	113cc <core_init_matrix+0xac>

00011520 <matrix_sum>:
   11520:	00050e93          	mv	t4,a0
   11524:	08050463          	beqz	a0,115ac <matrix_sum+0x8c>
   11528:	00251f93          	slli	t6,a0,0x2
   1152c:	40a00f33          	neg	t5,a0
   11530:	01f588b3          	add	a7,a1,t6
   11534:	00000e13          	li	t3,0
   11538:	00000513          	li	a0,0
   1153c:	00000713          	li	a4,0
   11540:	00000593          	li	a1,0
   11544:	003f1f13          	slli	t5,t5,0x3
   11548:	41f88333          	sub	t1,a7,t6
   1154c:	00030793          	mv	a5,t1
   11550:	0140006f          	j	11564 <matrix_sum+0x44>
   11554:	01051513          	slli	a0,a0,0x10
   11558:	00478793          	addi	a5,a5,4
   1155c:	41055513          	srai	a0,a0,0x10
   11560:	02f88e63          	beq	a7,a5,1159c <matrix_sum+0x7c>
   11564:	00070693          	mv	a3,a4
   11568:	0007a703          	lw	a4,0(a5)
   1156c:	01051513          	slli	a0,a0,0x10
   11570:	01055513          	srli	a0,a0,0x10
   11574:	00e6a6b3          	slt	a3,a3,a4
   11578:	00e585b3          	add	a1,a1,a4
   1157c:	00a50813          	addi	a6,a0,10
   11580:	00d50533          	add	a0,a0,a3
   11584:	fcb658e3          	bge	a2,a1,11554 <matrix_sum+0x34>
   11588:	01081513          	slli	a0,a6,0x10
   1158c:	00478793          	addi	a5,a5,4
   11590:	41055513          	srai	a0,a0,0x10
   11594:	00000593          	li	a1,0
   11598:	fcf896e3          	bne	a7,a5,11564 <matrix_sum+0x44>
   1159c:	001e0e13          	addi	t3,t3,1
   115a0:	41e308b3          	sub	a7,t1,t5
   115a4:	fbce92e3          	bne	t4,t3,11548 <matrix_sum+0x28>
   115a8:	00008067          	ret
   115ac:	00000513          	li	a0,0
   115b0:	00008067          	ret

000115b4 <matrix_mul_const>:
   115b4:	0c050863          	beqz	a0,11684 <matrix_mul_const+0xd0>
   115b8:	fd010113          	addi	sp,sp,-48
   115bc:	01812423          	sw	s8,8(sp)
   115c0:	01a12023          	sw	s10,0(sp)
   115c4:	40a00c33          	neg	s8,a0
   115c8:	00151d13          	slli	s10,a0,0x1
   115cc:	03212023          	sw	s2,32(sp)
   115d0:	01312e23          	sw	s3,28(sp)
   115d4:	01512a23          	sw	s5,20(sp)
   115d8:	01612823          	sw	s6,16(sp)
   115dc:	01712623          	sw	s7,12(sp)
   115e0:	01912223          	sw	s9,4(sp)
   115e4:	02112623          	sw	ra,44(sp)
   115e8:	02812423          	sw	s0,40(sp)
   115ec:	02912223          	sw	s1,36(sp)
   115f0:	01412c23          	sw	s4,24(sp)
   115f4:	00050b93          	mv	s7,a0
   115f8:	00058c93          	mv	s9,a1
   115fc:	00068993          	mv	s3,a3
   11600:	01a60933          	add	s2,a2,s10
   11604:	00000a93          	li	s5,0
   11608:	00000b13          	li	s6,0
   1160c:	002c1c13          	slli	s8,s8,0x2
   11610:	41a90a33          	sub	s4,s2,s10
   11614:	002a9493          	slli	s1,s5,0x2
   11618:	009c84b3          	add	s1,s9,s1
   1161c:	000a0413          	mv	s0,s4
   11620:	00041503          	lh	a0,0(s0)
   11624:	00098593          	mv	a1,s3
   11628:	00240413          	addi	s0,s0,2
   1162c:	34d030ef          	jal	15178 <__mulsi3>
   11630:	00a4a023          	sw	a0,0(s1)
   11634:	00448493          	addi	s1,s1,4
   11638:	ff2414e3          	bne	s0,s2,11620 <matrix_mul_const+0x6c>
   1163c:	001b0b13          	addi	s6,s6,1
   11640:	017a8ab3          	add	s5,s5,s7
   11644:	418a0933          	sub	s2,s4,s8
   11648:	fd6b94e3          	bne	s7,s6,11610 <matrix_mul_const+0x5c>
   1164c:	02c12083          	lw	ra,44(sp)
   11650:	02812403          	lw	s0,40(sp)
   11654:	02412483          	lw	s1,36(sp)
   11658:	02012903          	lw	s2,32(sp)
   1165c:	01c12983          	lw	s3,28(sp)
   11660:	01812a03          	lw	s4,24(sp)
   11664:	01412a83          	lw	s5,20(sp)
   11668:	01012b03          	lw	s6,16(sp)
   1166c:	00c12b83          	lw	s7,12(sp)
   11670:	00812c03          	lw	s8,8(sp)
   11674:	00412c83          	lw	s9,4(sp)
   11678:	00012d03          	lw	s10,0(sp)
   1167c:	03010113          	addi	sp,sp,48
   11680:	00008067          	ret
   11684:	00008067          	ret

00011688 <matrix_add_const>:
   11688:	04050463          	beqz	a0,116d0 <matrix_add_const+0x48>
   1168c:	00151313          	slli	t1,a0,0x1
   11690:	40a008b3          	neg	a7,a0
   11694:	01061613          	slli	a2,a2,0x10
   11698:	01065613          	srli	a2,a2,0x10
   1169c:	006586b3          	add	a3,a1,t1
   116a0:	00000813          	li	a6,0
   116a4:	00289893          	slli	a7,a7,0x2
   116a8:	406685b3          	sub	a1,a3,t1
   116ac:	00058793          	mv	a5,a1
   116b0:	0007d703          	lhu	a4,0(a5)
   116b4:	00278793          	addi	a5,a5,2
   116b8:	00e60733          	add	a4,a2,a4
   116bc:	fee79f23          	sh	a4,-2(a5)
   116c0:	fef698e3          	bne	a3,a5,116b0 <matrix_add_const+0x28>
   116c4:	00180813          	addi	a6,a6,1
   116c8:	411586b3          	sub	a3,a1,a7
   116cc:	fd051ee3          	bne	a0,a6,116a8 <matrix_add_const+0x20>
   116d0:	00008067          	ret

000116d4 <matrix_mul_vect>:
   116d4:	0c050463          	beqz	a0,1179c <matrix_mul_vect+0xc8>
   116d8:	fd010113          	addi	sp,sp,-48
   116dc:	01312e23          	sw	s3,28(sp)
   116e0:	01712623          	sw	s7,12(sp)
   116e4:	00151993          	slli	s3,a0,0x1
   116e8:	00251b93          	slli	s7,a0,0x2
   116ec:	01412c23          	sw	s4,24(sp)
   116f0:	01512a23          	sw	s5,20(sp)
   116f4:	01612823          	sw	s6,16(sp)
   116f8:	01812423          	sw	s8,8(sp)
   116fc:	01912223          	sw	s9,4(sp)
   11700:	02112623          	sw	ra,44(sp)
   11704:	02812423          	sw	s0,40(sp)
   11708:	02912223          	sw	s1,36(sp)
   1170c:	03212023          	sw	s2,32(sp)
   11710:	00050a93          	mv	s5,a0
   11714:	00060c13          	mv	s8,a2
   11718:	00068b13          	mv	s6,a3
   1171c:	00058a13          	mv	s4,a1
   11720:	01758bb3          	add	s7,a1,s7
   11724:	013689b3          	add	s3,a3,s3
   11728:	00000c93          	li	s9,0
   1172c:	001c9493          	slli	s1,s9,0x1
   11730:	009c04b3          	add	s1,s8,s1
   11734:	000b0413          	mv	s0,s6
   11738:	00000913          	li	s2,0
   1173c:	00041583          	lh	a1,0(s0)
   11740:	00049503          	lh	a0,0(s1)
   11744:	00240413          	addi	s0,s0,2
   11748:	00248493          	addi	s1,s1,2
   1174c:	22d030ef          	jal	15178 <__mulsi3>
   11750:	00a90933          	add	s2,s2,a0
   11754:	fe8994e3          	bne	s3,s0,1173c <matrix_mul_vect+0x68>
   11758:	012a2023          	sw	s2,0(s4)
   1175c:	004a0a13          	addi	s4,s4,4
   11760:	015c8cb3          	add	s9,s9,s5
   11764:	fd4b94e3          	bne	s7,s4,1172c <matrix_mul_vect+0x58>
   11768:	02c12083          	lw	ra,44(sp)
   1176c:	02812403          	lw	s0,40(sp)
   11770:	02412483          	lw	s1,36(sp)
   11774:	02012903          	lw	s2,32(sp)
   11778:	01c12983          	lw	s3,28(sp)
   1177c:	01812a03          	lw	s4,24(sp)
   11780:	01412a83          	lw	s5,20(sp)
   11784:	01012b03          	lw	s6,16(sp)
   11788:	00c12b83          	lw	s7,12(sp)
   1178c:	00812c03          	lw	s8,8(sp)
   11790:	00412c83          	lw	s9,4(sp)
   11794:	03010113          	addi	sp,sp,48
   11798:	00008067          	ret
   1179c:	00008067          	ret

000117a0 <matrix_mul_matrix>:
   117a0:	fb010113          	addi	sp,sp,-80
   117a4:	04112623          	sw	ra,76(sp)
   117a8:	00b12423          	sw	a1,8(sp)
   117ac:	00d12623          	sw	a3,12(sp)
   117b0:	0e050863          	beqz	a0,118a0 <matrix_mul_matrix+0x100>
   117b4:	04912223          	sw	s1,68(sp)
   117b8:	00151493          	slli	s1,a0,0x1
   117bc:	05212023          	sw	s2,64(sp)
   117c0:	03612823          	sw	s6,48(sp)
   117c4:	03712623          	sw	s7,44(sp)
   117c8:	03812423          	sw	s8,40(sp)
   117cc:	03912223          	sw	s9,36(sp)
   117d0:	04812423          	sw	s0,72(sp)
   117d4:	03312e23          	sw	s3,60(sp)
   117d8:	03412c23          	sw	s4,56(sp)
   117dc:	03512a23          	sw	s5,52(sp)
   117e0:	03a12023          	sw	s10,32(sp)
   117e4:	01b12e23          	sw	s11,28(sp)
   117e8:	00050b93          	mv	s7,a0
   117ec:	00060b13          	mv	s6,a2
   117f0:	00960933          	add	s2,a2,s1
   117f4:	00000c13          	li	s8,0
   117f8:	00000c93          	li	s9,0
   117fc:	00812783          	lw	a5,8(sp)
   11800:	00c12a03          	lw	s4,12(sp)
   11804:	002c1993          	slli	s3,s8,0x2
   11808:	013789b3          	add	s3,a5,s3
   1180c:	00000a93          	li	s5,0
   11810:	000a0d93          	mv	s11,s4
   11814:	000b0413          	mv	s0,s6
   11818:	00000d13          	li	s10,0
   1181c:	000d9583          	lh	a1,0(s11)
   11820:	00041503          	lh	a0,0(s0)
   11824:	00240413          	addi	s0,s0,2
   11828:	009d8db3          	add	s11,s11,s1
   1182c:	14d030ef          	jal	15178 <__mulsi3>
   11830:	00ad0d33          	add	s10,s10,a0
   11834:	fe8914e3          	bne	s2,s0,1181c <matrix_mul_matrix+0x7c>
   11838:	01a9a023          	sw	s10,0(s3)
   1183c:	001a8793          	addi	a5,s5,1
   11840:	00498993          	addi	s3,s3,4
   11844:	002a0a13          	addi	s4,s4,2
   11848:	00fb8663          	beq	s7,a5,11854 <matrix_mul_matrix+0xb4>
   1184c:	00078a93          	mv	s5,a5
   11850:	fc1ff06f          	j	11810 <matrix_mul_matrix+0x70>
   11854:	001c8793          	addi	a5,s9,1 # 1001 <uart_tx+0x1>
   11858:	009b0b33          	add	s6,s6,s1
   1185c:	017c0c33          	add	s8,s8,s7
   11860:	00990933          	add	s2,s2,s1
   11864:	015c8663          	beq	s9,s5,11870 <matrix_mul_matrix+0xd0>
   11868:	00078c93          	mv	s9,a5
   1186c:	f91ff06f          	j	117fc <matrix_mul_matrix+0x5c>
   11870:	04812403          	lw	s0,72(sp)
   11874:	04412483          	lw	s1,68(sp)
   11878:	04012903          	lw	s2,64(sp)
   1187c:	03c12983          	lw	s3,60(sp)
   11880:	03812a03          	lw	s4,56(sp)
   11884:	03412a83          	lw	s5,52(sp)
   11888:	03012b03          	lw	s6,48(sp)
   1188c:	02c12b83          	lw	s7,44(sp)
   11890:	02812c03          	lw	s8,40(sp)
   11894:	02412c83          	lw	s9,36(sp)
   11898:	02012d03          	lw	s10,32(sp)
   1189c:	01c12d83          	lw	s11,28(sp)
   118a0:	04c12083          	lw	ra,76(sp)
   118a4:	05010113          	addi	sp,sp,80
   118a8:	00008067          	ret

000118ac <matrix_mul_matrix_bitextract>:
   118ac:	fb010113          	addi	sp,sp,-80
   118b0:	04112623          	sw	ra,76(sp)
   118b4:	00b12423          	sw	a1,8(sp)
   118b8:	00d12623          	sw	a3,12(sp)
   118bc:	10050263          	beqz	a0,119c0 <matrix_mul_matrix_bitextract+0x114>
   118c0:	04812423          	sw	s0,72(sp)
   118c4:	00151413          	slli	s0,a0,0x1
   118c8:	04912223          	sw	s1,68(sp)
   118cc:	03512a23          	sw	s5,52(sp)
   118d0:	03612823          	sw	s6,48(sp)
   118d4:	03712623          	sw	s7,44(sp)
   118d8:	03812423          	sw	s8,40(sp)
   118dc:	05212023          	sw	s2,64(sp)
   118e0:	03312e23          	sw	s3,60(sp)
   118e4:	03412c23          	sw	s4,56(sp)
   118e8:	03912223          	sw	s9,36(sp)
   118ec:	03a12023          	sw	s10,32(sp)
   118f0:	01b12e23          	sw	s11,28(sp)
   118f4:	00050b13          	mv	s6,a0
   118f8:	00060a93          	mv	s5,a2
   118fc:	008604b3          	add	s1,a2,s0
   11900:	00000b93          	li	s7,0
   11904:	00000c13          	li	s8,0
   11908:	00812783          	lw	a5,8(sp)
   1190c:	00c12983          	lw	s3,12(sp)
   11910:	002b9913          	slli	s2,s7,0x2
   11914:	01278933          	add	s2,a5,s2
   11918:	00000a13          	li	s4,0
   1191c:	00098d13          	mv	s10,s3
   11920:	000a8d93          	mv	s11,s5
   11924:	00000c93          	li	s9,0
   11928:	000d1583          	lh	a1,0(s10)
   1192c:	000d9503          	lh	a0,0(s11)
   11930:	002d8d93          	addi	s11,s11,2
   11934:	008d0d33          	add	s10,s10,s0
   11938:	041030ef          	jal	15178 <__mulsi3>
   1193c:	40255693          	srai	a3,a0,0x2
   11940:	40555593          	srai	a1,a0,0x5
   11944:	07f5f593          	andi	a1,a1,127
   11948:	00f6f513          	andi	a0,a3,15
   1194c:	02d030ef          	jal	15178 <__mulsi3>
   11950:	00ac8cb3          	add	s9,s9,a0
   11954:	fdb49ae3          	bne	s1,s11,11928 <matrix_mul_matrix_bitextract+0x7c>
   11958:	01992023          	sw	s9,0(s2)
   1195c:	001a0793          	addi	a5,s4,1
   11960:	00490913          	addi	s2,s2,4
   11964:	00298993          	addi	s3,s3,2
   11968:	00fb0663          	beq	s6,a5,11974 <matrix_mul_matrix_bitextract+0xc8>
   1196c:	00078a13          	mv	s4,a5
   11970:	fadff06f          	j	1191c <matrix_mul_matrix_bitextract+0x70>
   11974:	001c0793          	addi	a5,s8,1
   11978:	008a8ab3          	add	s5,s5,s0
   1197c:	016b8bb3          	add	s7,s7,s6
   11980:	008484b3          	add	s1,s1,s0
   11984:	014c0663          	beq	s8,s4,11990 <matrix_mul_matrix_bitextract+0xe4>
   11988:	00078c13          	mv	s8,a5
   1198c:	f7dff06f          	j	11908 <matrix_mul_matrix_bitextract+0x5c>
   11990:	04812403          	lw	s0,72(sp)
   11994:	04412483          	lw	s1,68(sp)
   11998:	04012903          	lw	s2,64(sp)
   1199c:	03c12983          	lw	s3,60(sp)
   119a0:	03812a03          	lw	s4,56(sp)
   119a4:	03412a83          	lw	s5,52(sp)
   119a8:	03012b03          	lw	s6,48(sp)
   119ac:	02c12b83          	lw	s7,44(sp)
   119b0:	02812c03          	lw	s8,40(sp)
   119b4:	02412c83          	lw	s9,36(sp)
   119b8:	02012d03          	lw	s10,32(sp)
   119bc:	01c12d83          	lw	s11,28(sp)
   119c0:	04c12083          	lw	ra,76(sp)
   119c4:	05010113          	addi	sp,sp,80
   119c8:	00008067          	ret

000119cc <matrix_test>:
   119cc:	fa010113          	addi	sp,sp,-96
   119d0:	04112e23          	sw	ra,92(sp)
   119d4:	04812c23          	sw	s0,88(sp)
   119d8:	04912a23          	sw	s1,84(sp)
   119dc:	05212823          	sw	s2,80(sp)
   119e0:	05312623          	sw	s3,76(sp)
   119e4:	00b12823          	sw	a1,16(sp)
   119e8:	00c12a23          	sw	a2,20(sp)
   119ec:	00d12c23          	sw	a3,24(sp)
   119f0:	3e050063          	beqz	a0,11dd0 <matrix_test+0x404>
   119f4:	00070913          	mv	s2,a4
   119f8:	00151713          	slli	a4,a0,0x1
   119fc:	40a007b3          	neg	a5,a0
   11a00:	00e604b3          	add	s1,a2,a4
   11a04:	01091413          	slli	s0,s2,0x10
   11a08:	05412423          	sw	s4,72(sp)
   11a0c:	05512223          	sw	s5,68(sp)
   11a10:	03812c23          	sw	s8,56(sp)
   11a14:	05612023          	sw	s6,64(sp)
   11a18:	03712e23          	sw	s7,60(sp)
   11a1c:	03912a23          	sw	s9,52(sp)
   11a20:	03a12823          	sw	s10,48(sp)
   11a24:	03b12623          	sw	s11,44(sp)
   11a28:	00050c13          	mv	s8,a0
   11a2c:	00e12623          	sw	a4,12(sp)
   11a30:	00f12e23          	sw	a5,28(sp)
   11a34:	01045413          	srli	s0,s0,0x10
   11a38:	00048693          	mv	a3,s1
   11a3c:	00000a13          	li	s4,0
   11a40:	00279a93          	slli	s5,a5,0x2
   11a44:	00c12783          	lw	a5,12(sp)
   11a48:	40f68633          	sub	a2,a3,a5
   11a4c:	00060793          	mv	a5,a2
   11a50:	0007d703          	lhu	a4,0(a5)
   11a54:	00278793          	addi	a5,a5,2
   11a58:	00e40733          	add	a4,s0,a4
   11a5c:	fee79f23          	sh	a4,-2(a5)
   11a60:	fed798e3          	bne	a5,a3,11a50 <matrix_test+0x84>
   11a64:	001a0993          	addi	s3,s4,1
   11a68:	415606b3          	sub	a3,a2,s5
   11a6c:	013c0663          	beq	s8,s3,11a78 <matrix_test+0xac>
   11a70:	00098a13          	mv	s4,s3
   11a74:	fd1ff06f          	j	11a44 <matrix_test+0x78>
   11a78:	00000b93          	li	s7,0
   11a7c:	00000c93          	li	s9,0
   11a80:	00c12783          	lw	a5,12(sp)
   11a84:	002b9713          	slli	a4,s7,0x2
   11a88:	40f48b33          	sub	s6,s1,a5
   11a8c:	01012783          	lw	a5,16(sp)
   11a90:	000b0d93          	mv	s11,s6
   11a94:	00f70d33          	add	s10,a4,a5
   11a98:	000d9503          	lh	a0,0(s11)
   11a9c:	00090593          	mv	a1,s2
   11aa0:	002d8d93          	addi	s11,s11,2
   11aa4:	6d4030ef          	jal	15178 <__mulsi3>
   11aa8:	00ad2023          	sw	a0,0(s10)
   11aac:	004d0d13          	addi	s10,s10,4
   11ab0:	fe9d94e3          	bne	s11,s1,11a98 <matrix_test+0xcc>
   11ab4:	001c8793          	addi	a5,s9,1
   11ab8:	013b8bb3          	add	s7,s7,s3
   11abc:	415b04b3          	sub	s1,s6,s5
   11ac0:	014c8663          	beq	s9,s4,11acc <matrix_test+0x100>
   11ac4:	00078c93          	mv	s9,a5
   11ac8:	fb9ff06f          	j	11a80 <matrix_test+0xb4>
   11acc:	01012783          	lw	a5,16(sp)
   11ad0:	41300e33          	neg	t3,s3
   11ad4:	fffff4b7          	lui	s1,0xfffff
   11ad8:	009964b3          	or	s1,s2,s1
   11adc:	41578833          	sub	a6,a5,s5
   11ae0:	00000513          	li	a0,0
   11ae4:	00000713          	li	a4,0
   11ae8:	00000613          	li	a2,0
   11aec:	00000313          	li	t1,0
   11af0:	003e1e13          	slli	t3,t3,0x3
   11af4:	015808b3          	add	a7,a6,s5
   11af8:	00088793          	mv	a5,a7
   11afc:	0140006f          	j	11b10 <matrix_test+0x144>
   11b00:	01051513          	slli	a0,a0,0x10
   11b04:	00478793          	addi	a5,a5,4
   11b08:	41055513          	srai	a0,a0,0x10
   11b0c:	03078e63          	beq	a5,a6,11b48 <matrix_test+0x17c>
   11b10:	00070693          	mv	a3,a4
   11b14:	0007a703          	lw	a4,0(a5)
   11b18:	01051513          	slli	a0,a0,0x10
   11b1c:	01055513          	srli	a0,a0,0x10
   11b20:	00e6a6b3          	slt	a3,a3,a4
   11b24:	00e60633          	add	a2,a2,a4
   11b28:	00a50593          	addi	a1,a0,10
   11b2c:	00d50533          	add	a0,a0,a3
   11b30:	fcc4d8e3          	bge	s1,a2,11b00 <matrix_test+0x134>
   11b34:	01059513          	slli	a0,a1,0x10
   11b38:	00478793          	addi	a5,a5,4
   11b3c:	41055513          	srai	a0,a0,0x10
   11b40:	00000613          	li	a2,0
   11b44:	fd0796e3          	bne	a5,a6,11b10 <matrix_test+0x144>
   11b48:	00130793          	addi	a5,t1,1
   11b4c:	41c88833          	sub	a6,a7,t3
   11b50:	006a0663          	beq	s4,t1,11b5c <matrix_test+0x190>
   11b54:	00078313          	mv	t1,a5
   11b58:	f9dff06f          	j	11af4 <matrix_test+0x128>
   11b5c:	00000593          	li	a1,0
   11b60:	341000ef          	jal	126a0 <crc16>
   11b64:	01012903          	lw	s2,16(sp)
   11b68:	01412603          	lw	a2,20(sp)
   11b6c:	01812683          	lw	a3,24(sp)
   11b70:	00090593          	mv	a1,s2
   11b74:	00050993          	mv	s3,a0
   11b78:	000c0513          	mv	a0,s8
   11b7c:	b59ff0ef          	jal	116d4 <matrix_mul_vect>
   11b80:	01c12783          	lw	a5,28(sp)
   11b84:	002c1a93          	slli	s5,s8,0x2
   11b88:	01590ab3          	add	s5,s2,s5
   11b8c:	00279a13          	slli	s4,a5,0x2
   11b90:	000a8813          	mv	a6,s5
   11b94:	00000513          	li	a0,0
   11b98:	00000713          	li	a4,0
   11b9c:	00000613          	li	a2,0
   11ba0:	00000913          	li	s2,0
   11ba4:	00379b13          	slli	s6,a5,0x3
   11ba8:	010a08b3          	add	a7,s4,a6
   11bac:	00088793          	mv	a5,a7
   11bb0:	0140006f          	j	11bc4 <matrix_test+0x1f8>
   11bb4:	01051513          	slli	a0,a0,0x10
   11bb8:	00478793          	addi	a5,a5,4
   11bbc:	41055513          	srai	a0,a0,0x10
   11bc0:	03078e63          	beq	a5,a6,11bfc <matrix_test+0x230>
   11bc4:	00070693          	mv	a3,a4
   11bc8:	0007a703          	lw	a4,0(a5)
   11bcc:	01051513          	slli	a0,a0,0x10
   11bd0:	01055513          	srli	a0,a0,0x10
   11bd4:	00e6a6b3          	slt	a3,a3,a4
   11bd8:	00e60633          	add	a2,a2,a4
   11bdc:	00a50593          	addi	a1,a0,10
   11be0:	00d50533          	add	a0,a0,a3
   11be4:	fcc4d8e3          	bge	s1,a2,11bb4 <matrix_test+0x1e8>
   11be8:	01059513          	slli	a0,a1,0x10
   11bec:	00478793          	addi	a5,a5,4
   11bf0:	41055513          	srai	a0,a0,0x10
   11bf4:	00000613          	li	a2,0
   11bf8:	fd0796e3          	bne	a5,a6,11bc4 <matrix_test+0x1f8>
   11bfc:	00190b93          	addi	s7,s2,1
   11c00:	41688833          	sub	a6,a7,s6
   11c04:	017c0663          	beq	s8,s7,11c10 <matrix_test+0x244>
   11c08:	000b8913          	mv	s2,s7
   11c0c:	f9dff06f          	j	11ba8 <matrix_test+0x1dc>
   11c10:	00098593          	mv	a1,s3
   11c14:	28d000ef          	jal	126a0 <crc16>
   11c18:	01412603          	lw	a2,20(sp)
   11c1c:	01812683          	lw	a3,24(sp)
   11c20:	01012583          	lw	a1,16(sp)
   11c24:	00050993          	mv	s3,a0
   11c28:	000b8513          	mv	a0,s7
   11c2c:	b75ff0ef          	jal	117a0 <matrix_mul_matrix>
   11c30:	000a8813          	mv	a6,s5
   11c34:	00000513          	li	a0,0
   11c38:	00000713          	li	a4,0
   11c3c:	00000613          	li	a2,0
   11c40:	00000313          	li	t1,0
   11c44:	014808b3          	add	a7,a6,s4
   11c48:	00088793          	mv	a5,a7
   11c4c:	0140006f          	j	11c60 <matrix_test+0x294>
   11c50:	01051513          	slli	a0,a0,0x10
   11c54:	00478793          	addi	a5,a5,4
   11c58:	41055513          	srai	a0,a0,0x10
   11c5c:	02f80e63          	beq	a6,a5,11c98 <matrix_test+0x2cc>
   11c60:	00070693          	mv	a3,a4
   11c64:	0007a703          	lw	a4,0(a5)
   11c68:	01051513          	slli	a0,a0,0x10
   11c6c:	01055513          	srli	a0,a0,0x10
   11c70:	00e6a6b3          	slt	a3,a3,a4
   11c74:	00e60633          	add	a2,a2,a4
   11c78:	00a50593          	addi	a1,a0,10
   11c7c:	00d50533          	add	a0,a0,a3
   11c80:	fcc4d8e3          	bge	s1,a2,11c50 <matrix_test+0x284>
   11c84:	01059513          	slli	a0,a1,0x10
   11c88:	00478793          	addi	a5,a5,4
   11c8c:	41055513          	srai	a0,a0,0x10
   11c90:	00000613          	li	a2,0
   11c94:	fcf816e3          	bne	a6,a5,11c60 <matrix_test+0x294>
   11c98:	00130793          	addi	a5,t1,1
   11c9c:	41688833          	sub	a6,a7,s6
   11ca0:	01230663          	beq	t1,s2,11cac <matrix_test+0x2e0>
   11ca4:	00078313          	mv	t1,a5
   11ca8:	f9dff06f          	j	11c44 <matrix_test+0x278>
   11cac:	00098593          	mv	a1,s3
   11cb0:	1f1000ef          	jal	126a0 <crc16>
   11cb4:	01412603          	lw	a2,20(sp)
   11cb8:	01812683          	lw	a3,24(sp)
   11cbc:	01012583          	lw	a1,16(sp)
   11cc0:	00050993          	mv	s3,a0
   11cc4:	000b8513          	mv	a0,s7
   11cc8:	be5ff0ef          	jal	118ac <matrix_mul_matrix_bitextract>
   11ccc:	00000513          	li	a0,0
   11cd0:	00000713          	li	a4,0
   11cd4:	00000613          	li	a2,0
   11cd8:	00000893          	li	a7,0
   11cdc:	015a0833          	add	a6,s4,s5
   11ce0:	00080793          	mv	a5,a6
   11ce4:	0140006f          	j	11cf8 <matrix_test+0x32c>
   11ce8:	01051513          	slli	a0,a0,0x10
   11cec:	00478793          	addi	a5,a5,4
   11cf0:	41055513          	srai	a0,a0,0x10
   11cf4:	02fa8e63          	beq	s5,a5,11d30 <matrix_test+0x364>
   11cf8:	00070693          	mv	a3,a4
   11cfc:	0007a703          	lw	a4,0(a5)
   11d00:	01051513          	slli	a0,a0,0x10
   11d04:	01055513          	srli	a0,a0,0x10
   11d08:	00e6a6b3          	slt	a3,a3,a4
   11d0c:	00e60633          	add	a2,a2,a4
   11d10:	00a50593          	addi	a1,a0,10
   11d14:	00d50533          	add	a0,a0,a3
   11d18:	fcc4d8e3          	bge	s1,a2,11ce8 <matrix_test+0x31c>
   11d1c:	01059513          	slli	a0,a1,0x10
   11d20:	00478793          	addi	a5,a5,4
   11d24:	41055513          	srai	a0,a0,0x10
   11d28:	00000613          	li	a2,0
   11d2c:	fcfa96e3          	bne	s5,a5,11cf8 <matrix_test+0x32c>
   11d30:	00188793          	addi	a5,a7,1
   11d34:	41680ab3          	sub	s5,a6,s6
   11d38:	01288663          	beq	a7,s2,11d44 <matrix_test+0x378>
   11d3c:	00078893          	mv	a7,a5
   11d40:	f9dff06f          	j	11cdc <matrix_test+0x310>
   11d44:	00098593          	mv	a1,s3
   11d48:	159000ef          	jal	126a0 <crc16>
   11d4c:	01412783          	lw	a5,20(sp)
   11d50:	001b9b93          	slli	s7,s7,0x1
   11d54:	00000593          	li	a1,0
   11d58:	017786b3          	add	a3,a5,s7
   11d5c:	41768633          	sub	a2,a3,s7
   11d60:	00060793          	mv	a5,a2
   11d64:	0007d703          	lhu	a4,0(a5)
   11d68:	00278793          	addi	a5,a5,2
   11d6c:	40870733          	sub	a4,a4,s0
   11d70:	fee79f23          	sh	a4,-2(a5)
   11d74:	fed798e3          	bne	a5,a3,11d64 <matrix_test+0x398>
   11d78:	00158793          	addi	a5,a1,1
   11d7c:	414606b3          	sub	a3,a2,s4
   11d80:	01258663          	beq	a1,s2,11d8c <matrix_test+0x3c0>
   11d84:	00078593          	mv	a1,a5
   11d88:	fd5ff06f          	j	11d5c <matrix_test+0x390>
   11d8c:	04812a03          	lw	s4,72(sp)
   11d90:	04412a83          	lw	s5,68(sp)
   11d94:	04012b03          	lw	s6,64(sp)
   11d98:	03c12b83          	lw	s7,60(sp)
   11d9c:	03812c03          	lw	s8,56(sp)
   11da0:	03412c83          	lw	s9,52(sp)
   11da4:	03012d03          	lw	s10,48(sp)
   11da8:	02c12d83          	lw	s11,44(sp)
   11dac:	05c12083          	lw	ra,92(sp)
   11db0:	05812403          	lw	s0,88(sp)
   11db4:	01051513          	slli	a0,a0,0x10
   11db8:	05412483          	lw	s1,84(sp)
   11dbc:	05012903          	lw	s2,80(sp)
   11dc0:	04c12983          	lw	s3,76(sp)
   11dc4:	41055513          	srai	a0,a0,0x10
   11dc8:	06010113          	addi	sp,sp,96
   11dcc:	00008067          	ret
   11dd0:	00000593          	li	a1,0
   11dd4:	0cd000ef          	jal	126a0 <crc16>
   11dd8:	01812983          	lw	s3,24(sp)
   11ddc:	01412903          	lw	s2,20(sp)
   11de0:	01012483          	lw	s1,16(sp)
   11de4:	00098693          	mv	a3,s3
   11de8:	00090613          	mv	a2,s2
   11dec:	00050413          	mv	s0,a0
   11df0:	00048593          	mv	a1,s1
   11df4:	00000513          	li	a0,0
   11df8:	8ddff0ef          	jal	116d4 <matrix_mul_vect>
   11dfc:	00040593          	mv	a1,s0
   11e00:	00000513          	li	a0,0
   11e04:	09d000ef          	jal	126a0 <crc16>
   11e08:	00098693          	mv	a3,s3
   11e0c:	00090613          	mv	a2,s2
   11e10:	00050413          	mv	s0,a0
   11e14:	00048593          	mv	a1,s1
   11e18:	00000513          	li	a0,0
   11e1c:	985ff0ef          	jal	117a0 <matrix_mul_matrix>
   11e20:	00040593          	mv	a1,s0
   11e24:	00000513          	li	a0,0
   11e28:	079000ef          	jal	126a0 <crc16>
   11e2c:	00050413          	mv	s0,a0
   11e30:	00048593          	mv	a1,s1
   11e34:	00098693          	mv	a3,s3
   11e38:	00090613          	mv	a2,s2
   11e3c:	00000513          	li	a0,0
   11e40:	a6dff0ef          	jal	118ac <matrix_mul_matrix_bitextract>
   11e44:	00040593          	mv	a1,s0
   11e48:	00000513          	li	a0,0
   11e4c:	055000ef          	jal	126a0 <crc16>
   11e50:	f5dff06f          	j	11dac <matrix_test+0x3e0>

00011e54 <core_bench_matrix>:
   11e54:	ff010113          	addi	sp,sp,-16
   11e58:	00812423          	sw	s0,8(sp)
   11e5c:	00852683          	lw	a3,8(a0)
   11e60:	00060413          	mv	s0,a2
   11e64:	00058713          	mv	a4,a1
   11e68:	00452603          	lw	a2,4(a0)
   11e6c:	00c52583          	lw	a1,12(a0)
   11e70:	00052503          	lw	a0,0(a0)
   11e74:	00112623          	sw	ra,12(sp)
   11e78:	b55ff0ef          	jal	119cc <matrix_test>
   11e7c:	00040593          	mv	a1,s0
   11e80:	00812403          	lw	s0,8(sp)
   11e84:	00c12083          	lw	ra,12(sp)
   11e88:	01010113          	addi	sp,sp,16
   11e8c:	0150006f          	j	126a0 <crc16>

00011e90 <core_init_state>:
   11e90:	fff50813          	addi	a6,a0,-1
   11e94:	00100793          	li	a5,1
   11e98:	1107fe63          	bgeu	a5,a6,11fb4 <core_init_state+0x124>
   11e9c:	00158593          	addi	a1,a1,1
   11ea0:	01059593          	slli	a1,a1,0x10
   11ea4:	0105d593          	srli	a1,a1,0x10
   11ea8:	ff010113          	addi	sp,sp,-16
   11eac:	0035d793          	srli	a5,a1,0x3
   11eb0:	00812623          	sw	s0,12(sp)
   11eb4:	00700893          	li	a7,7
   11eb8:	0075f693          	andi	a3,a1,7
   11ebc:	00000713          	li	a4,0
   11ec0:	d8d18313          	addi	t1,gp,-627 # 161c4 <intpat>
   11ec4:	00400e13          	li	t3,4
   11ec8:	00100e93          	li	t4,1
   11ecc:	02c00f13          	li	t5,44
   11ed0:	0037f793          	andi	a5,a5,3
   11ed4:	07168e63          	beq	a3,a7,11f50 <core_init_state+0xc0>
   11ed8:	0cde6463          	bltu	t3,a3,11fa0 <core_init_state+0x110>
   11edc:	ffd68693          	addi	a3,a3,-3
   11ee0:	01069693          	slli	a3,a3,0x10
   11ee4:	00279793          	slli	a5,a5,0x2
   11ee8:	0106d693          	srli	a3,a3,0x10
   11eec:	00f307b3          	add	a5,t1,a5
   11ef0:	0adee263          	bltu	t4,a3,11f94 <core_init_state+0x104>
   11ef4:	0107a783          	lw	a5,16(a5)
   11ef8:	00800293          	li	t0,8
   11efc:	00170693          	addi	a3,a4,1
   11f00:	00568433          	add	s0,a3,t0
   11f04:	07047463          	bgeu	s0,a6,11f6c <core_init_state+0xdc>
   11f08:	00e60733          	add	a4,a2,a4
   11f0c:	00070693          	mv	a3,a4
   11f10:	005783b3          	add	t2,a5,t0
   11f14:	0007cf83          	lbu	t6,0(a5)
   11f18:	00178793          	addi	a5,a5,1
   11f1c:	00168693          	addi	a3,a3,1
   11f20:	fff68fa3          	sb	t6,-1(a3)
   11f24:	fef398e3          	bne	t2,a5,11f14 <core_init_state+0x84>
   11f28:	00158593          	addi	a1,a1,1
   11f2c:	01059593          	slli	a1,a1,0x10
   11f30:	00570733          	add	a4,a4,t0
   11f34:	0105d593          	srli	a1,a1,0x10
   11f38:	01e70023          	sb	t5,0(a4)
   11f3c:	0035d793          	srli	a5,a1,0x3
   11f40:	0075f693          	andi	a3,a1,7
   11f44:	00040713          	mv	a4,s0
   11f48:	0037f793          	andi	a5,a5,3
   11f4c:	f91696e3          	bne	a3,a7,11ed8 <core_init_state+0x48>
   11f50:	00279793          	slli	a5,a5,0x2
   11f54:	00800293          	li	t0,8
   11f58:	00170693          	addi	a3,a4,1
   11f5c:	00f307b3          	add	a5,t1,a5
   11f60:	00568433          	add	s0,a3,t0
   11f64:	0307a783          	lw	a5,48(a5)
   11f68:	fb0460e3          	bltu	s0,a6,11f08 <core_init_state+0x78>
   11f6c:	00a76663          	bltu	a4,a0,11f78 <core_init_state+0xe8>
   11f70:	0180006f          	j	11f88 <core_init_state+0xf8>
   11f74:	00168693          	addi	a3,a3,1
   11f78:	00e60733          	add	a4,a2,a4
   11f7c:	00070023          	sb	zero,0(a4)
   11f80:	00068713          	mv	a4,a3
   11f84:	fea6e8e3          	bltu	a3,a0,11f74 <core_init_state+0xe4>
   11f88:	00c12403          	lw	s0,12(sp)
   11f8c:	01010113          	addi	sp,sp,16
   11f90:	00008067          	ret
   11f94:	0007a783          	lw	a5,0(a5)
   11f98:	00400293          	li	t0,4
   11f9c:	f61ff06f          	j	11efc <core_init_state+0x6c>
   11fa0:	00279793          	slli	a5,a5,0x2
   11fa4:	00f307b3          	add	a5,t1,a5
   11fa8:	0207a783          	lw	a5,32(a5)
   11fac:	00800293          	li	t0,8
   11fb0:	f4dff06f          	j	11efc <core_init_state+0x6c>
   11fb4:	00000713          	li	a4,0
   11fb8:	00100693          	li	a3,1
   11fbc:	0080006f          	j	11fc4 <core_init_state+0x134>
   11fc0:	00168693          	addi	a3,a3,1
   11fc4:	00e60733          	add	a4,a2,a4
   11fc8:	00070023          	sb	zero,0(a4)
   11fcc:	00068713          	mv	a4,a3
   11fd0:	fea6e8e3          	bltu	a3,a0,11fc0 <core_init_state+0x130>
   11fd4:	00008067          	ret

00011fd8 <core_state_transition>:
   11fd8:	00052783          	lw	a5,0(a0)
   11fdc:	00050813          	mv	a6,a0
   11fe0:	0007c703          	lbu	a4,0(a5)
   11fe4:	28070263          	beqz	a4,12268 <core_state_transition+0x290>
   11fe8:	02c00693          	li	a3,44
   11fec:	00000513          	li	a0,0
   11ff0:	20d70a63          	beq	a4,a3,12204 <core_state_transition+0x22c>
   11ff4:	02e00513          	li	a0,46
   11ff8:	22a70663          	beq	a4,a0,12224 <core_state_transition+0x24c>
   11ffc:	1ce56a63          	bltu	a0,a4,121d0 <core_state_transition+0x1f8>
   12000:	fd570713          	addi	a4,a4,-43
   12004:	0fd77713          	andi	a4,a4,253
   12008:	02070663          	beqz	a4,12034 <core_state_transition+0x5c>
   1200c:	0045a683          	lw	a3,4(a1)
   12010:	0005a703          	lw	a4,0(a1)
   12014:	00178793          	addi	a5,a5,1
   12018:	00168693          	addi	a3,a3,1
   1201c:	00170713          	addi	a4,a4,1
   12020:	00d5a223          	sw	a3,4(a1)
   12024:	00e5a023          	sw	a4,0(a1)
   12028:	00100513          	li	a0,1
   1202c:	00f82023          	sw	a5,0(a6)
   12030:	00008067          	ret
   12034:	0005a703          	lw	a4,0(a1)
   12038:	00178613          	addi	a2,a5,1
   1203c:	00170713          	addi	a4,a4,1
   12040:	00e5a023          	sw	a4,0(a1)
   12044:	0017c883          	lbu	a7,1(a5)
   12048:	26088663          	beqz	a7,122b4 <core_state_transition+0x2dc>
   1204c:	20d88663          	beq	a7,a3,12258 <core_state_transition+0x280>
   12050:	0085a683          	lw	a3,8(a1)
   12054:	fd088713          	addi	a4,a7,-48
   12058:	0ff77713          	zext.b	a4,a4
   1205c:	00900313          	li	t1,9
   12060:	00168693          	addi	a3,a3,1
   12064:	00e37e63          	bgeu	t1,a4,12080 <core_state_transition+0xa8>
   12068:	1ea88463          	beq	a7,a0,12250 <core_state_transition+0x278>
   1206c:	00d5a423          	sw	a3,8(a1)
   12070:	00278793          	addi	a5,a5,2
   12074:	00100513          	li	a0,1
   12078:	00f82023          	sw	a5,0(a6)
   1207c:	00008067          	ret
   12080:	00d5a423          	sw	a3,8(a1)
   12084:	00164783          	lbu	a5,1(a2)
   12088:	00160613          	addi	a2,a2,1
   1208c:	1e078263          	beqz	a5,12270 <core_state_transition+0x298>
   12090:	02c00713          	li	a4,44
   12094:	16e78463          	beq	a5,a4,121fc <core_state_transition+0x224>
   12098:	02e00713          	li	a4,46
   1209c:	02e78863          	beq	a5,a4,120cc <core_state_transition+0xf4>
   120a0:	fd078793          	addi	a5,a5,-48
   120a4:	0ff7f793          	zext.b	a5,a5
   120a8:	00900713          	li	a4,9
   120ac:	fcf77ce3          	bgeu	a4,a5,12084 <core_state_transition+0xac>
   120b0:	0105a703          	lw	a4,16(a1)
   120b4:	00160793          	addi	a5,a2,1
   120b8:	00100513          	li	a0,1
   120bc:	00170713          	addi	a4,a4,1
   120c0:	00e5a823          	sw	a4,16(a1)
   120c4:	00f82023          	sw	a5,0(a6)
   120c8:	00008067          	ret
   120cc:	0105a783          	lw	a5,16(a1)
   120d0:	00178793          	addi	a5,a5,1
   120d4:	00f5a823          	sw	a5,16(a1)
   120d8:	0140006f          	j	120ec <core_state_transition+0x114>
   120dc:	fd078793          	addi	a5,a5,-48
   120e0:	0ff7f793          	zext.b	a5,a5
   120e4:	00900713          	li	a4,9
   120e8:	12f76263          	bltu	a4,a5,1220c <core_state_transition+0x234>
   120ec:	00164783          	lbu	a5,1(a2)
   120f0:	00160613          	addi	a2,a2,1
   120f4:	1a078a63          	beqz	a5,122a8 <core_state_transition+0x2d0>
   120f8:	02c00713          	li	a4,44
   120fc:	14e78263          	beq	a5,a4,12240 <core_state_transition+0x268>
   12100:	0df7f713          	andi	a4,a5,223
   12104:	04500693          	li	a3,69
   12108:	fcd71ae3          	bne	a4,a3,120dc <core_state_transition+0x104>
   1210c:	0145a703          	lw	a4,20(a1)
   12110:	00160793          	addi	a5,a2,1
   12114:	00300513          	li	a0,3
   12118:	00170713          	addi	a4,a4,1
   1211c:	00e5aa23          	sw	a4,20(a1)
   12120:	00164703          	lbu	a4,1(a2)
   12124:	f00704e3          	beqz	a4,1202c <core_state_transition+0x54>
   12128:	02c00693          	li	a3,44
   1212c:	14d70863          	beq	a4,a3,1227c <core_state_transition+0x2a4>
   12130:	00c5a783          	lw	a5,12(a1)
   12134:	fd570713          	addi	a4,a4,-43
   12138:	0fd77713          	andi	a4,a4,253
   1213c:	00178793          	addi	a5,a5,1
   12140:	00f5a623          	sw	a5,12(a1)
   12144:	00100513          	li	a0,1
   12148:	00260793          	addi	a5,a2,2
   1214c:	ee0710e3          	bnez	a4,1202c <core_state_transition+0x54>
   12150:	00264703          	lbu	a4,2(a2)
   12154:	00260793          	addi	a5,a2,2
   12158:	00600513          	li	a0,6
   1215c:	ec0708e3          	beqz	a4,1202c <core_state_transition+0x54>
   12160:	12d70463          	beq	a4,a3,12288 <core_state_transition+0x2b0>
   12164:	0185a683          	lw	a3,24(a1)
   12168:	fd070713          	addi	a4,a4,-48
   1216c:	0ff77713          	zext.b	a4,a4
   12170:	00168693          	addi	a3,a3,1
   12174:	00900513          	li	a0,9
   12178:	00d5ac23          	sw	a3,24(a1)
   1217c:	00e57a63          	bgeu	a0,a4,12190 <core_state_transition+0x1b8>
   12180:	00360793          	addi	a5,a2,3
   12184:	00100513          	li	a0,1
   12188:	00f82023          	sw	a5,0(a6)
   1218c:	00008067          	ret
   12190:	00900613          	li	a2,9
   12194:	0017c683          	lbu	a3,1(a5)
   12198:	00078513          	mv	a0,a5
   1219c:	02c00893          	li	a7,44
   121a0:	fd068713          	addi	a4,a3,-48
   121a4:	00178793          	addi	a5,a5,1
   121a8:	0ff77713          	zext.b	a4,a4
   121ac:	0e068463          	beqz	a3,12294 <core_state_transition+0x2bc>
   121b0:	0f168663          	beq	a3,a7,1229c <core_state_transition+0x2c4>
   121b4:	fee670e3          	bgeu	a2,a4,12194 <core_state_transition+0x1bc>
   121b8:	0045a703          	lw	a4,4(a1)
   121bc:	00250793          	addi	a5,a0,2
   121c0:	00100513          	li	a0,1
   121c4:	00170713          	addi	a4,a4,1
   121c8:	00e5a223          	sw	a4,4(a1)
   121cc:	e61ff06f          	j	1202c <core_state_transition+0x54>
   121d0:	fd070713          	addi	a4,a4,-48
   121d4:	0ff77713          	zext.b	a4,a4
   121d8:	00900613          	li	a2,9
   121dc:	e2e668e3          	bltu	a2,a4,1200c <core_state_transition+0x34>
   121e0:	0005a703          	lw	a4,0(a1)
   121e4:	00178613          	addi	a2,a5,1
   121e8:	00170713          	addi	a4,a4,1
   121ec:	00e5a023          	sw	a4,0(a1)
   121f0:	0017c783          	lbu	a5,1(a5)
   121f4:	06078e63          	beqz	a5,12270 <core_state_transition+0x298>
   121f8:	ead790e3          	bne	a5,a3,12098 <core_state_transition+0xc0>
   121fc:	00060793          	mv	a5,a2
   12200:	00400513          	li	a0,4
   12204:	00178793          	addi	a5,a5,1
   12208:	e25ff06f          	j	1202c <core_state_transition+0x54>
   1220c:	0145a703          	lw	a4,20(a1)
   12210:	00160793          	addi	a5,a2,1
   12214:	00100513          	li	a0,1
   12218:	00170713          	addi	a4,a4,1
   1221c:	00e5aa23          	sw	a4,20(a1)
   12220:	e0dff06f          	j	1202c <core_state_transition+0x54>
   12224:	0005a703          	lw	a4,0(a1)
   12228:	00178613          	addi	a2,a5,1
   1222c:	00170713          	addi	a4,a4,1
   12230:	00e5a023          	sw	a4,0(a1)
   12234:	0017c783          	lbu	a5,1(a5)
   12238:	06078863          	beqz	a5,122a8 <core_state_transition+0x2d0>
   1223c:	ecd792e3          	bne	a5,a3,12100 <core_state_transition+0x128>
   12240:	00060793          	mv	a5,a2
   12244:	00500513          	li	a0,5
   12248:	00178793          	addi	a5,a5,1
   1224c:	de1ff06f          	j	1202c <core_state_transition+0x54>
   12250:	00d5a423          	sw	a3,8(a1)
   12254:	e99ff06f          	j	120ec <core_state_transition+0x114>
   12258:	00060793          	mv	a5,a2
   1225c:	00200513          	li	a0,2
   12260:	00178793          	addi	a5,a5,1
   12264:	dc9ff06f          	j	1202c <core_state_transition+0x54>
   12268:	00000513          	li	a0,0
   1226c:	dc1ff06f          	j	1202c <core_state_transition+0x54>
   12270:	00060793          	mv	a5,a2
   12274:	00400513          	li	a0,4
   12278:	db5ff06f          	j	1202c <core_state_transition+0x54>
   1227c:	00300513          	li	a0,3
   12280:	00178793          	addi	a5,a5,1
   12284:	da9ff06f          	j	1202c <core_state_transition+0x54>
   12288:	00600513          	li	a0,6
   1228c:	00178793          	addi	a5,a5,1
   12290:	d9dff06f          	j	1202c <core_state_transition+0x54>
   12294:	00700513          	li	a0,7
   12298:	d95ff06f          	j	1202c <core_state_transition+0x54>
   1229c:	00700513          	li	a0,7
   122a0:	00178793          	addi	a5,a5,1
   122a4:	d89ff06f          	j	1202c <core_state_transition+0x54>
   122a8:	00060793          	mv	a5,a2
   122ac:	00500513          	li	a0,5
   122b0:	d7dff06f          	j	1202c <core_state_transition+0x54>
   122b4:	00060793          	mv	a5,a2
   122b8:	00200513          	li	a0,2
   122bc:	d71ff06f          	j	1202c <core_state_transition+0x54>

000122c0 <core_bench_state>:
   122c0:	f8010113          	addi	sp,sp,-128
   122c4:	06912a23          	sw	s1,116(sp)
   122c8:	07312623          	sw	s3,108(sp)
   122cc:	01010493          	addi	s1,sp,16
   122d0:	03010993          	addi	s3,sp,48
   122d4:	06812c23          	sw	s0,120(sp)
   122d8:	07212823          	sw	s2,112(sp)
   122dc:	07412423          	sw	s4,104(sp)
   122e0:	07612023          	sw	s6,96(sp)
   122e4:	05712e23          	sw	s7,92(sp)
   122e8:	05812c23          	sw	s8,88(sp)
   122ec:	00068b13          	mv	s6,a3
   122f0:	00070a13          	mv	s4,a4
   122f4:	00078913          	mv	s2,a5
   122f8:	06112e23          	sw	ra,124(sp)
   122fc:	07512223          	sw	s5,100(sp)
   12300:	00058413          	mv	s0,a1
   12304:	00050c13          	mv	s8,a0
   12308:	00060b93          	mv	s7,a2
   1230c:	00b12623          	sw	a1,12(sp)
   12310:	05010693          	addi	a3,sp,80
   12314:	00048713          	mv	a4,s1
   12318:	00098793          	mv	a5,s3
   1231c:	0007a023          	sw	zero,0(a5)
   12320:	00072023          	sw	zero,0(a4)
   12324:	00478793          	addi	a5,a5,4
   12328:	00470713          	addi	a4,a4,4
   1232c:	fed798e3          	bne	a5,a3,1231c <core_bench_state+0x5c>
   12330:	00044783          	lbu	a5,0(s0)
   12334:	00c10a93          	addi	s5,sp,12
   12338:	10078e63          	beqz	a5,12454 <core_bench_state+0x194>
   1233c:	03010593          	addi	a1,sp,48
   12340:	000a8513          	mv	a0,s5
   12344:	c95ff0ef          	jal	11fd8 <core_state_transition>
   12348:	00251813          	slli	a6,a0,0x2
   1234c:	05080793          	addi	a5,a6,80
   12350:	00278833          	add	a6,a5,sp
   12354:	00c12703          	lw	a4,12(sp)
   12358:	fc082783          	lw	a5,-64(a6)
   1235c:	00074703          	lbu	a4,0(a4)
   12360:	00178793          	addi	a5,a5,1
   12364:	fcf82023          	sw	a5,-64(a6)
   12368:	fc071ae3          	bnez	a4,1233c <core_bench_state+0x7c>
   1236c:	00812623          	sw	s0,12(sp)
   12370:	01840c33          	add	s8,s0,s8
   12374:	03847863          	bgeu	s0,s8,123a4 <core_bench_state+0xe4>
   12378:	00040793          	mv	a5,s0
   1237c:	02c00613          	li	a2,44
   12380:	0007c703          	lbu	a4,0(a5)
   12384:	017746b3          	xor	a3,a4,s7
   12388:	00c70463          	beq	a4,a2,12390 <core_bench_state+0xd0>
   1238c:	00d78023          	sb	a3,0(a5)
   12390:	014787b3          	add	a5,a5,s4
   12394:	ff87e6e3          	bltu	a5,s8,12380 <core_bench_state+0xc0>
   12398:	00044783          	lbu	a5,0(s0)
   1239c:	00c10a93          	addi	s5,sp,12
   123a0:	02078a63          	beqz	a5,123d4 <core_bench_state+0x114>
   123a4:	03010593          	addi	a1,sp,48
   123a8:	000a8513          	mv	a0,s5
   123ac:	c2dff0ef          	jal	11fd8 <core_state_transition>
   123b0:	00251613          	slli	a2,a0,0x2
   123b4:	05060793          	addi	a5,a2,80
   123b8:	00278633          	add	a2,a5,sp
   123bc:	00c12703          	lw	a4,12(sp)
   123c0:	fc062783          	lw	a5,-64(a2)
   123c4:	00074703          	lbu	a4,0(a4)
   123c8:	00178793          	addi	a5,a5,1
   123cc:	fcf62023          	sw	a5,-64(a2)
   123d0:	fc071ae3          	bnez	a4,123a4 <core_bench_state+0xe4>
   123d4:	00812623          	sw	s0,12(sp)
   123d8:	02c00693          	li	a3,44
   123dc:	01847e63          	bgeu	s0,s8,123f8 <core_bench_state+0x138>
   123e0:	00044783          	lbu	a5,0(s0)
   123e4:	0167c733          	xor	a4,a5,s6
   123e8:	00d78463          	beq	a5,a3,123f0 <core_bench_state+0x130>
   123ec:	00e40023          	sb	a4,0(s0)
   123f0:	01440433          	add	s0,s0,s4
   123f4:	ff8466e3          	bltu	s0,s8,123e0 <core_bench_state+0x120>
   123f8:	02048413          	addi	s0,s1,32 # fffff020 <__stack_end+0xfffe7020>
   123fc:	0004a503          	lw	a0,0(s1)
   12400:	00090593          	mv	a1,s2
   12404:	00448493          	addi	s1,s1,4
   12408:	17c000ef          	jal	12584 <crcu32>
   1240c:	00050593          	mv	a1,a0
   12410:	0009a503          	lw	a0,0(s3)
   12414:	00498993          	addi	s3,s3,4
   12418:	16c000ef          	jal	12584 <crcu32>
   1241c:	00050913          	mv	s2,a0
   12420:	fc941ee3          	bne	s0,s1,123fc <core_bench_state+0x13c>
   12424:	07c12083          	lw	ra,124(sp)
   12428:	07812403          	lw	s0,120(sp)
   1242c:	07412483          	lw	s1,116(sp)
   12430:	07012903          	lw	s2,112(sp)
   12434:	06c12983          	lw	s3,108(sp)
   12438:	06812a03          	lw	s4,104(sp)
   1243c:	06412a83          	lw	s5,100(sp)
   12440:	06012b03          	lw	s6,96(sp)
   12444:	05c12b83          	lw	s7,92(sp)
   12448:	05812c03          	lw	s8,88(sp)
   1244c:	08010113          	addi	sp,sp,128
   12450:	00008067          	ret
   12454:	01840c33          	add	s8,s0,s8
   12458:	f38460e3          	bltu	s0,s8,12378 <core_bench_state+0xb8>
   1245c:	f9dff06f          	j	123f8 <core_bench_state+0x138>

00012460 <get_seed_32>:
   12460:	00500793          	li	a5,5
   12464:	04a7e263          	bltu	a5,a0,124a8 <get_seed_32+0x48>
   12468:	dcd18713          	addi	a4,gp,-563 # 16204 <errpat+0x10>
   1246c:	00251513          	slli	a0,a0,0x2
   12470:	00e50533          	add	a0,a0,a4
   12474:	00052783          	lw	a5,0(a0)
   12478:	00e787b3          	add	a5,a5,a4
   1247c:	00078067          	jr	a5
   12480:	1951a503          	lw	a0,405(gp) # 165cc <seed5_volatile>
   12484:	00008067          	ret
   12488:	19d1a503          	lw	a0,413(gp) # 165d4 <seed1_volatile>
   1248c:	00008067          	ret
   12490:	1991a503          	lw	a0,409(gp) # 165d0 <seed2_volatile>
   12494:	00008067          	ret
   12498:	1391a503          	lw	a0,313(gp) # 16570 <seed3_volatile>
   1249c:	00008067          	ret
   124a0:	1351a503          	lw	a0,309(gp) # 1656c <seed4_volatile>
   124a4:	00008067          	ret
   124a8:	00000513          	li	a0,0
   124ac:	00008067          	ret

000124b0 <crcu8>:
   124b0:	ffffa637          	lui	a2,0xffffa
   124b4:	00050693          	mv	a3,a0
   124b8:	00800713          	li	a4,8
   124bc:	00058513          	mv	a0,a1
   124c0:	00160613          	addi	a2,a2,1 # ffffa001 <__stack_end+0xfffe2001>
   124c4:	00a6c7b3          	xor	a5,a3,a0
   124c8:	0017f793          	andi	a5,a5,1
   124cc:	40f007b3          	neg	a5,a5
   124d0:	00155513          	srli	a0,a0,0x1
   124d4:	00c7f7b3          	and	a5,a5,a2
   124d8:	fff70713          	addi	a4,a4,-1
   124dc:	00a7c7b3          	xor	a5,a5,a0
   124e0:	01079513          	slli	a0,a5,0x10
   124e4:	0ff77713          	zext.b	a4,a4
   124e8:	0016d693          	srli	a3,a3,0x1
   124ec:	01055513          	srli	a0,a0,0x10
   124f0:	fc071ae3          	bnez	a4,124c4 <crcu8+0x14>
   124f4:	00008067          	ret

000124f8 <crcu16>:
   124f8:	00050693          	mv	a3,a0
   124fc:	ffffa837          	lui	a6,0xffffa
   12500:	00058513          	mv	a0,a1
   12504:	0ff6f613          	zext.b	a2,a3
   12508:	00800713          	li	a4,8
   1250c:	00180813          	addi	a6,a6,1 # ffffa001 <__stack_end+0xfffe2001>
   12510:	00a647b3          	xor	a5,a2,a0
   12514:	0017f793          	andi	a5,a5,1
   12518:	40f007b3          	neg	a5,a5
   1251c:	00155513          	srli	a0,a0,0x1
   12520:	0107f7b3          	and	a5,a5,a6
   12524:	fff70713          	addi	a4,a4,-1
   12528:	00a7c7b3          	xor	a5,a5,a0
   1252c:	01079513          	slli	a0,a5,0x10
   12530:	0ff77713          	zext.b	a4,a4
   12534:	00165613          	srli	a2,a2,0x1
   12538:	01055513          	srli	a0,a0,0x10
   1253c:	fc071ae3          	bnez	a4,12510 <crcu16+0x18>
   12540:	ffffa637          	lui	a2,0xffffa
   12544:	0086d693          	srli	a3,a3,0x8
   12548:	00800713          	li	a4,8
   1254c:	00160613          	addi	a2,a2,1 # ffffa001 <__stack_end+0xfffe2001>
   12550:	00a6c7b3          	xor	a5,a3,a0
   12554:	0017f793          	andi	a5,a5,1
   12558:	40f007b3          	neg	a5,a5
   1255c:	00155513          	srli	a0,a0,0x1
   12560:	00c7f7b3          	and	a5,a5,a2
   12564:	fff70713          	addi	a4,a4,-1
   12568:	00a7c7b3          	xor	a5,a5,a0
   1256c:	01079513          	slli	a0,a5,0x10
   12570:	0ff77713          	zext.b	a4,a4
   12574:	0016d693          	srli	a3,a3,0x1
   12578:	01055513          	srli	a0,a0,0x10
   1257c:	fc071ae3          	bnez	a4,12550 <crcu16+0x58>
   12580:	00008067          	ret

00012584 <crcu32>:
   12584:	00050693          	mv	a3,a0
   12588:	ffffa837          	lui	a6,0xffffa
   1258c:	01069613          	slli	a2,a3,0x10
   12590:	00058513          	mv	a0,a1
   12594:	01065613          	srli	a2,a2,0x10
   12598:	0ff6f593          	zext.b	a1,a3
   1259c:	00800713          	li	a4,8
   125a0:	00180813          	addi	a6,a6,1 # ffffa001 <__stack_end+0xfffe2001>
   125a4:	00a5c7b3          	xor	a5,a1,a0
   125a8:	0017f793          	andi	a5,a5,1
   125ac:	40f007b3          	neg	a5,a5
   125b0:	00155513          	srli	a0,a0,0x1
   125b4:	0107f7b3          	and	a5,a5,a6
   125b8:	fff70713          	addi	a4,a4,-1
   125bc:	00a7c7b3          	xor	a5,a5,a0
   125c0:	01079513          	slli	a0,a5,0x10
   125c4:	0ff77713          	zext.b	a4,a4
   125c8:	0015d593          	srli	a1,a1,0x1
   125cc:	01055513          	srli	a0,a0,0x10
   125d0:	fc071ae3          	bnez	a4,125a4 <crcu32+0x20>
   125d4:	ffffa5b7          	lui	a1,0xffffa
   125d8:	00865613          	srli	a2,a2,0x8
   125dc:	00800713          	li	a4,8
   125e0:	00158593          	addi	a1,a1,1 # ffffa001 <__stack_end+0xfffe2001>
   125e4:	00a647b3          	xor	a5,a2,a0
   125e8:	0017f793          	andi	a5,a5,1
   125ec:	40f007b3          	neg	a5,a5
   125f0:	00155513          	srli	a0,a0,0x1
   125f4:	00b7f7b3          	and	a5,a5,a1
   125f8:	fff70713          	addi	a4,a4,-1
   125fc:	00a7c7b3          	xor	a5,a5,a0
   12600:	01079513          	slli	a0,a5,0x10
   12604:	0ff77713          	zext.b	a4,a4
   12608:	00165613          	srli	a2,a2,0x1
   1260c:	01055513          	srli	a0,a0,0x10
   12610:	fc071ae3          	bnez	a4,125e4 <crcu32+0x60>
   12614:	0106d613          	srli	a2,a3,0x10
   12618:	ffffa5b7          	lui	a1,0xffffa
   1261c:	00060693          	mv	a3,a2
   12620:	00800713          	li	a4,8
   12624:	0ff67613          	zext.b	a2,a2
   12628:	00158593          	addi	a1,a1,1 # ffffa001 <__stack_end+0xfffe2001>
   1262c:	00a647b3          	xor	a5,a2,a0
   12630:	0017f793          	andi	a5,a5,1
   12634:	40f007b3          	neg	a5,a5
   12638:	00155513          	srli	a0,a0,0x1
   1263c:	00b7f7b3          	and	a5,a5,a1
   12640:	fff70713          	addi	a4,a4,-1
   12644:	00a7c7b3          	xor	a5,a5,a0
   12648:	01079513          	slli	a0,a5,0x10
   1264c:	0ff77713          	zext.b	a4,a4
   12650:	00165613          	srli	a2,a2,0x1
   12654:	01055513          	srli	a0,a0,0x10
   12658:	fc071ae3          	bnez	a4,1262c <crcu32+0xa8>
   1265c:	ffffa637          	lui	a2,0xffffa
   12660:	0086d693          	srli	a3,a3,0x8
   12664:	00800713          	li	a4,8
   12668:	00160613          	addi	a2,a2,1 # ffffa001 <__stack_end+0xfffe2001>
   1266c:	00a6c7b3          	xor	a5,a3,a0
   12670:	0017f793          	andi	a5,a5,1
   12674:	40f007b3          	neg	a5,a5
   12678:	00155513          	srli	a0,a0,0x1
   1267c:	00c7f7b3          	and	a5,a5,a2
   12680:	fff70713          	addi	a4,a4,-1
   12684:	00a7c7b3          	xor	a5,a5,a0
   12688:	01079513          	slli	a0,a5,0x10
   1268c:	0ff77713          	zext.b	a4,a4
   12690:	0016d693          	srli	a3,a3,0x1
   12694:	01055513          	srli	a0,a0,0x10
   12698:	fc071ae3          	bnez	a4,1266c <crcu32+0xe8>
   1269c:	00008067          	ret

000126a0 <crc16>:
   126a0:	00050693          	mv	a3,a0
   126a4:	01069613          	slli	a2,a3,0x10
   126a8:	ffffa837          	lui	a6,0xffffa
   126ac:	00058513          	mv	a0,a1
   126b0:	01065613          	srli	a2,a2,0x10
   126b4:	0ff6f693          	zext.b	a3,a3
   126b8:	00800713          	li	a4,8
   126bc:	00180813          	addi	a6,a6,1 # ffffa001 <__stack_end+0xfffe2001>
   126c0:	00a6c7b3          	xor	a5,a3,a0
   126c4:	0017f793          	andi	a5,a5,1
   126c8:	40f007b3          	neg	a5,a5
   126cc:	00155513          	srli	a0,a0,0x1
   126d0:	0107f7b3          	and	a5,a5,a6
   126d4:	fff70713          	addi	a4,a4,-1
   126d8:	00a7c7b3          	xor	a5,a5,a0
   126dc:	01079513          	slli	a0,a5,0x10
   126e0:	0ff77713          	zext.b	a4,a4
   126e4:	0016d693          	srli	a3,a3,0x1
   126e8:	01055513          	srli	a0,a0,0x10
   126ec:	fc071ae3          	bnez	a4,126c0 <crc16+0x20>
   126f0:	ffffa5b7          	lui	a1,0xffffa
   126f4:	00865693          	srli	a3,a2,0x8
   126f8:	00800713          	li	a4,8
   126fc:	00158593          	addi	a1,a1,1 # ffffa001 <__stack_end+0xfffe2001>
   12700:	00a6c7b3          	xor	a5,a3,a0
   12704:	0017f793          	andi	a5,a5,1
   12708:	40f007b3          	neg	a5,a5
   1270c:	00155513          	srli	a0,a0,0x1
   12710:	00b7f7b3          	and	a5,a5,a1
   12714:	fff70713          	addi	a4,a4,-1
   12718:	00a7c7b3          	xor	a5,a5,a0
   1271c:	01079513          	slli	a0,a5,0x10
   12720:	0ff77713          	zext.b	a4,a4
   12724:	0016d693          	srli	a3,a3,0x1
   12728:	01055513          	srli	a0,a0,0x10
   1272c:	fc071ae3          	bnez	a4,12700 <crc16+0x60>
   12730:	00008067          	ret

00012734 <check_data_types>:
   12734:	00000513          	li	a0,0
   12738:	00008067          	ret

0001273c <barebones_clock>:
   1273c:	c0001573          	csrrw	a0,cycle,zero
   12740:	00008067          	ret

00012744 <start_time>:
   12744:	c00017f3          	csrrw	a5,cycle,zero
   12748:	18f1a8a3          	sw	a5,401(gp) # 165c8 <start_time_val>
   1274c:	00008067          	ret

00012750 <stop_time>:
   12750:	c00017f3          	csrrw	a5,cycle,zero
   12754:	18f1a6a3          	sw	a5,397(gp) # 165c4 <stop_time_val>
   12758:	00008067          	ret

0001275c <get_time>:
   1275c:	18d1a503          	lw	a0,397(gp) # 165c4 <stop_time_val>
   12760:	1911a783          	lw	a5,401(gp) # 165c8 <start_time_val>
   12764:	40f50533          	sub	a0,a0,a5
   12768:	00008067          	ret

0001276c <time_in_secs>:
   1276c:	019c05b7          	lui	a1,0x19c0
   12770:	ff010113          	addi	sp,sp,-16
   12774:	cc058593          	addi	a1,a1,-832 # 19bfcc0 <__stack_end+0x19a7cc0>
   12778:	00112623          	sw	ra,12(sp)
   1277c:	229020ef          	jal	151a4 <__hidden___udivsi3>
   12780:	00c12083          	lw	ra,12(sp)
   12784:	01010113          	addi	sp,sp,16
   12788:	00008067          	ret

0001278c <portable_init>:
   1278c:	00100793          	li	a5,1
   12790:	00f50023          	sb	a5,0(a0)
   12794:	00008067          	ret

00012798 <portable_fini>:
   12798:	00050023          	sb	zero,0(a0)
   1279c:	00008067          	ret

000127a0 <number>:
   127a0:	f6010113          	addi	sp,sp,-160
   127a4:	08812c23          	sw	s0,152(sp)
   127a8:	08912a23          	sw	s1,148(sp)
   127ac:	09312623          	sw	s3,140(sp)
   127b0:	09512223          	sw	s5,132(sp)
   127b4:	07b12623          	sw	s11,108(sp)
   127b8:	08112e23          	sw	ra,156(sp)
   127bc:	09212823          	sw	s2,144(sp)
   127c0:	09612023          	sw	s6,128(sp)
   127c4:	07812c23          	sw	s8,120(sp)
   127c8:	07912a23          	sw	s9,116(sp)
   127cc:	07a12823          	sw	s10,112(sp)
   127d0:	0407f813          	andi	a6,a5,64
   127d4:	00e12423          	sw	a4,8(sp)
   127d8:	00050413          	mv	s0,a0
   127dc:	00058d93          	mv	s11,a1
   127e0:	00060993          	mv	s3,a2
   127e4:	00068493          	mv	s1,a3
   127e8:	00004a97          	auipc	s5,0x4
   127ec:	960a8a93          	addi	s5,s5,-1696 # 16148 <__subdf3+0xcb8>
   127f0:	00080663          	beqz	a6,127fc <number+0x5c>
   127f4:	00004a97          	auipc	s5,0x4
   127f8:	97ca8a93          	addi	s5,s5,-1668 # 16170 <__subdf3+0xce0>
   127fc:	0107fc93          	andi	s9,a5,16
   12800:	160c8e63          	beqz	s9,1297c <number+0x1dc>
   12804:	01000713          	li	a4,16
   12808:	ffe7f793          	andi	a5,a5,-2
   1280c:	00e12223          	sw	a4,4(sp)
   12810:	02000b13          	li	s6,32
   12814:	0027f713          	andi	a4,a5,2
   12818:	0207fc13          	andi	s8,a5,32
   1281c:	18070063          	beqz	a4,1299c <number+0x1fc>
   12820:	200dc063          	bltz	s11,12a20 <number+0x280>
   12824:	0047f713          	andi	a4,a5,4
   12828:	1c071863          	bnez	a4,129f8 <number+0x258>
   1282c:	0087f793          	andi	a5,a5,8
   12830:	00012623          	sw	zero,12(sp)
   12834:	00078863          	beqz	a5,12844 <number+0xa4>
   12838:	02000793          	li	a5,32
   1283c:	fff48493          	addi	s1,s1,-1
   12840:	00f12623          	sw	a5,12(sp)
   12844:	000c0e63          	beqz	s8,12860 <number+0xc0>
   12848:	01000793          	li	a5,16
   1284c:	20f98263          	beq	s3,a5,12a50 <number+0x2b0>
   12850:	ff898793          	addi	a5,s3,-8
   12854:	0017b793          	seqz	a5,a5
   12858:	02000c13          	li	s8,32
   1285c:	40f484b3          	sub	s1,s1,a5
   12860:	140d9263          	bnez	s11,129a4 <number+0x204>
   12864:	03000793          	li	a5,48
   12868:	00f10e23          	sb	a5,28(sp)
   1286c:	00100913          	li	s2,1
   12870:	01c10d13          	addi	s10,sp,28
   12874:	00812783          	lw	a5,8(sp)
   12878:	00090693          	mv	a3,s2
   1287c:	00f95463          	bge	s2,a5,12884 <number+0xe4>
   12880:	00078693          	mv	a3,a5
   12884:	00412783          	lw	a5,4(sp)
   12888:	40d484b3          	sub	s1,s1,a3
   1288c:	02079063          	bnez	a5,128ac <number+0x10c>
   12890:	00940733          	add	a4,s0,s1
   12894:	02000793          	li	a5,32
   12898:	1e905063          	blez	s1,12a78 <number+0x2d8>
   1289c:	00140413          	addi	s0,s0,1
   128a0:	fef40fa3          	sb	a5,-1(s0)
   128a4:	fe871ce3          	bne	a4,s0,1289c <number+0xfc>
   128a8:	fff00493          	li	s1,-1
   128ac:	00c12783          	lw	a5,12(sp)
   128b0:	00078663          	beqz	a5,128bc <number+0x11c>
   128b4:	00f40023          	sb	a5,0(s0)
   128b8:	00140413          	addi	s0,s0,1
   128bc:	000c0a63          	beqz	s8,128d0 <number+0x130>
   128c0:	00800793          	li	a5,8
   128c4:	16f98e63          	beq	s3,a5,12a40 <number+0x2a0>
   128c8:	01000793          	li	a5,16
   128cc:	12f98e63          	beq	s3,a5,12a08 <number+0x268>
   128d0:	000c9e63          	bnez	s9,128ec <number+0x14c>
   128d4:	009407b3          	add	a5,s0,s1
   128d8:	1a905463          	blez	s1,12a80 <number+0x2e0>
   128dc:	00140413          	addi	s0,s0,1
   128e0:	ff640fa3          	sb	s6,-1(s0)
   128e4:	fef41ce3          	bne	s0,a5,128dc <number+0x13c>
   128e8:	fff00493          	li	s1,-1
   128ec:	412687b3          	sub	a5,a3,s2
   128f0:	00f407b3          	add	a5,s0,a5
   128f4:	03000713          	li	a4,48
   128f8:	16d95663          	bge	s2,a3,12a64 <number+0x2c4>
   128fc:	00140413          	addi	s0,s0,1
   12900:	fee40fa3          	sb	a4,-1(s0)
   12904:	fe879ce3          	bne	a5,s0,128fc <number+0x15c>
   12908:	01bd0733          	add	a4,s10,s11
   1290c:	00078613          	mv	a2,a5
   12910:	00074503          	lbu	a0,0(a4)
   12914:	00070693          	mv	a3,a4
   12918:	00160613          	addi	a2,a2,1
   1291c:	fea60fa3          	sb	a0,-1(a2)
   12920:	fff70713          	addi	a4,a4,-1
   12924:	fedd16e3          	bne	s10,a3,12910 <number+0x170>
   12928:	001d8893          	addi	a7,s11,1
   1292c:	011785b3          	add	a1,a5,a7
   12930:	12905663          	blez	s1,12a5c <number+0x2bc>
   12934:	00958533          	add	a0,a1,s1
   12938:	02000793          	li	a5,32
   1293c:	00158593          	addi	a1,a1,1
   12940:	fef58fa3          	sb	a5,-1(a1)
   12944:	feb51ce3          	bne	a0,a1,1293c <number+0x19c>
   12948:	09c12083          	lw	ra,156(sp)
   1294c:	09812403          	lw	s0,152(sp)
   12950:	09412483          	lw	s1,148(sp)
   12954:	09012903          	lw	s2,144(sp)
   12958:	08c12983          	lw	s3,140(sp)
   1295c:	08412a83          	lw	s5,132(sp)
   12960:	08012b03          	lw	s6,128(sp)
   12964:	07812c03          	lw	s8,120(sp)
   12968:	07412c83          	lw	s9,116(sp)
   1296c:	07012d03          	lw	s10,112(sp)
   12970:	06c12d83          	lw	s11,108(sp)
   12974:	0a010113          	addi	sp,sp,160
   12978:	00008067          	ret
   1297c:	0117f693          	andi	a3,a5,17
   12980:	0017f713          	andi	a4,a5,1
   12984:	00d12223          	sw	a3,4(sp)
   12988:	10070063          	beqz	a4,12a88 <number+0x2e8>
   1298c:	0027f713          	andi	a4,a5,2
   12990:	03000b13          	li	s6,48
   12994:	0207fc13          	andi	s8,a5,32
   12998:	e80714e3          	bnez	a4,12820 <number+0x80>
   1299c:	00012623          	sw	zero,12(sp)
   129a0:	ea5ff06f          	j	12844 <number+0xa4>
   129a4:	09412423          	sw	s4,136(sp)
   129a8:	07712e23          	sw	s7,124(sp)
   129ac:	000d8513          	mv	a0,s11
   129b0:	00000913          	li	s2,0
   129b4:	01c10d13          	addi	s10,sp,28
   129b8:	00098593          	mv	a1,s3
   129bc:	00050a13          	mv	s4,a0
   129c0:	02d020ef          	jal	151ec <__umodsi3>
   129c4:	00aa8533          	add	a0,s5,a0
   129c8:	00054703          	lbu	a4,0(a0)
   129cc:	00090d93          	mv	s11,s2
   129d0:	00190913          	addi	s2,s2,1
   129d4:	012d0bb3          	add	s7,s10,s2
   129d8:	00098593          	mv	a1,s3
   129dc:	000a0513          	mv	a0,s4
   129e0:	feeb8fa3          	sb	a4,-1(s7)
   129e4:	7c0020ef          	jal	151a4 <__hidden___udivsi3>
   129e8:	fd3a78e3          	bgeu	s4,s3,129b8 <number+0x218>
   129ec:	08812a03          	lw	s4,136(sp)
   129f0:	07c12b83          	lw	s7,124(sp)
   129f4:	e81ff06f          	j	12874 <number+0xd4>
   129f8:	02b00793          	li	a5,43
   129fc:	fff48493          	addi	s1,s1,-1
   12a00:	00f12623          	sw	a5,12(sp)
   12a04:	e41ff06f          	j	12844 <number+0xa4>
   12a08:	03000793          	li	a5,48
   12a0c:	00f40023          	sb	a5,0(s0)
   12a10:	07800793          	li	a5,120
   12a14:	00f400a3          	sb	a5,1(s0)
   12a18:	00240413          	addi	s0,s0,2
   12a1c:	eb5ff06f          	j	128d0 <number+0x130>
   12a20:	41b00db3          	neg	s11,s11
   12a24:	fff48493          	addi	s1,s1,-1
   12a28:	040c1263          	bnez	s8,12a6c <number+0x2cc>
   12a2c:	02d00793          	li	a5,45
   12a30:	09412423          	sw	s4,136(sp)
   12a34:	07712e23          	sw	s7,124(sp)
   12a38:	00f12623          	sw	a5,12(sp)
   12a3c:	f71ff06f          	j	129ac <number+0x20c>
   12a40:	03000793          	li	a5,48
   12a44:	00f40023          	sb	a5,0(s0)
   12a48:	00140413          	addi	s0,s0,1
   12a4c:	e85ff06f          	j	128d0 <number+0x130>
   12a50:	ffe48493          	addi	s1,s1,-2
   12a54:	02000c13          	li	s8,32
   12a58:	e09ff06f          	j	12860 <number+0xc0>
   12a5c:	00058513          	mv	a0,a1
   12a60:	ee9ff06f          	j	12948 <number+0x1a8>
   12a64:	00040793          	mv	a5,s0
   12a68:	ea1ff06f          	j	12908 <number+0x168>
   12a6c:	02d00793          	li	a5,45
   12a70:	00f12623          	sw	a5,12(sp)
   12a74:	dd5ff06f          	j	12848 <number+0xa8>
   12a78:	fff48493          	addi	s1,s1,-1
   12a7c:	e31ff06f          	j	128ac <number+0x10c>
   12a80:	fff48493          	addi	s1,s1,-1
   12a84:	e69ff06f          	j	128ec <number+0x14c>
   12a88:	00012223          	sw	zero,4(sp)
   12a8c:	02000b13          	li	s6,32
   12a90:	d85ff06f          	j	12814 <number+0x74>

00012a94 <uart_send_char>:
   12a94:	fffee797          	auipc	a5,0xfffee
   12a98:	56a78623          	sb	a0,1388(a5) # 1000 <uart_tx>
   12a9c:	ff010113          	addi	sp,sp,-16
   12aa0:	00012623          	sw	zero,12(sp)
   12aa4:	00c12703          	lw	a4,12(sp)
   12aa8:	00900793          	li	a5,9
   12aac:	02e7c063          	blt	a5,a4,12acc <uart_send_char+0x38>
   12ab0:	00900713          	li	a4,9
   12ab4:	00000013          	nop
   12ab8:	00c12783          	lw	a5,12(sp)
   12abc:	00178793          	addi	a5,a5,1
   12ac0:	00f12623          	sw	a5,12(sp)
   12ac4:	00c12783          	lw	a5,12(sp)
   12ac8:	fef756e3          	bge	a4,a5,12ab4 <uart_send_char+0x20>
   12acc:	01010113          	addi	sp,sp,16
   12ad0:	00008067          	ret

00012ad4 <ee_printf>:
   12ad4:	b6010113          	addi	sp,sp,-1184
   12ad8:	47512223          	sw	s5,1124(sp)
   12adc:	46112e23          	sw	ra,1148(sp)
   12ae0:	46812c23          	sw	s0,1144(sp)
   12ae4:	45b12623          	sw	s11,1100(sp)
   12ae8:	48b12223          	sw	a1,1156(sp)
   12aec:	48c12423          	sw	a2,1160(sp)
   12af0:	48d12623          	sw	a3,1164(sp)
   12af4:	48e12823          	sw	a4,1168(sp)
   12af8:	48f12a23          	sw	a5,1172(sp)
   12afc:	49012c23          	sw	a6,1176(sp)
   12b00:	49112e23          	sw	a7,1180(sp)
   12b04:	00054783          	lbu	a5,0(a0)
   12b08:	48410a93          	addi	s5,sp,1156
   12b0c:	03512223          	sw	s5,36(sp)
   12b10:	04078ce3          	beqz	a5,13368 <ee_printf+0x894>
   12b14:	04010d93          	addi	s11,sp,64
   12b18:	46912a23          	sw	s1,1140(sp)
   12b1c:	47212823          	sw	s2,1136(sp)
   12b20:	47312623          	sw	s3,1132(sp)
   12b24:	45812c23          	sw	s8,1112(sp)
   12b28:	45912a23          	sw	s9,1108(sp)
   12b2c:	47412423          	sw	s4,1128(sp)
   12b30:	000d8413          	mv	s0,s11
   12b34:	02500993          	li	s3,37
   12b38:	01000913          	li	s2,16
   12b3c:	de518493          	addi	s1,gp,-539 # 1621c <errpat+0x28>
   12b40:	00900e13          	li	t3,9
   12b44:	02e00313          	li	t1,46
   12b48:	04c00c13          	li	s8,76
   12b4c:	03700c93          	li	s9,55
   12b50:	09378463          	beq	a5,s3,12bd8 <ee_printf+0x104>
   12b54:	00f40023          	sb	a5,0(s0)
   12b58:	00154783          	lbu	a5,1(a0)
   12b5c:	00140413          	addi	s0,s0,1
   12b60:	00150513          	addi	a0,a0,1
   12b64:	fe0796e3          	bnez	a5,12b50 <ee_printf+0x7c>
   12b68:	47412483          	lw	s1,1140(sp)
   12b6c:	47012903          	lw	s2,1136(sp)
   12b70:	46c12983          	lw	s3,1132(sp)
   12b74:	46812a03          	lw	s4,1128(sp)
   12b78:	45812c03          	lw	s8,1112(sp)
   12b7c:	45412c83          	lw	s9,1108(sp)
   12b80:	00040023          	sb	zero,0(s0)
   12b84:	04014783          	lbu	a5,64(sp)
   12b88:	7e078a63          	beqz	a5,1337c <ee_printf+0x8a8>
   12b8c:	000d8693          	mv	a3,s11
   12b90:	fffee597          	auipc	a1,0xfffee
   12b94:	47058593          	addi	a1,a1,1136 # 1000 <uart_tx>
   12b98:	00900713          	li	a4,9
   12b9c:	00f58023          	sb	a5,0(a1)
   12ba0:	02012423          	sw	zero,40(sp)
   12ba4:	02812783          	lw	a5,40(sp)
   12ba8:	00f74e63          	blt	a4,a5,12bc4 <ee_printf+0xf0>
   12bac:	00000013          	nop
   12bb0:	02812783          	lw	a5,40(sp)
   12bb4:	00178793          	addi	a5,a5,1
   12bb8:	02f12423          	sw	a5,40(sp)
   12bbc:	02812783          	lw	a5,40(sp)
   12bc0:	fef756e3          	bge	a4,a5,12bac <ee_printf+0xd8>
   12bc4:	0016c783          	lbu	a5,1(a3)
   12bc8:	00168613          	addi	a2,a3,1
   12bcc:	10078863          	beqz	a5,12cdc <ee_printf+0x208>
   12bd0:	00060693          	mv	a3,a2
   12bd4:	fc9ff06f          	j	12b9c <ee_printf+0xc8>
   12bd8:	00000793          	li	a5,0
   12bdc:	00154603          	lbu	a2,1(a0)
   12be0:	00150593          	addi	a1,a0,1
   12be4:	fe060713          	addi	a4,a2,-32
   12be8:	0ff77713          	zext.b	a4,a4
   12bec:	00e96c63          	bltu	s2,a4,12c04 <ee_printf+0x130>
   12bf0:	00271713          	slli	a4,a4,0x2
   12bf4:	00970733          	add	a4,a4,s1
   12bf8:	00072703          	lw	a4,0(a4)
   12bfc:	00970733          	add	a4,a4,s1
   12c00:	00070067          	jr	a4
   12c04:	fd060713          	addi	a4,a2,-48
   12c08:	0ff77713          	zext.b	a4,a4
   12c0c:	10ee7e63          	bgeu	t3,a4,12d28 <ee_printf+0x254>
   12c10:	02a00713          	li	a4,42
   12c14:	fff00693          	li	a3,-1
   12c18:	14e60263          	beq	a2,a4,12d5c <ee_printf+0x288>
   12c1c:	fff00713          	li	a4,-1
   12c20:	0c660e63          	beq	a2,t1,12cfc <ee_printf+0x228>
   12c24:	0df67513          	andi	a0,a2,223
   12c28:	09850263          	beq	a0,s8,12cac <ee_printf+0x1d8>
   12c2c:	fbf60513          	addi	a0,a2,-65
   12c30:	0ff57513          	zext.b	a0,a0
   12c34:	04acec63          	bltu	s9,a0,12c8c <ee_printf+0x1b8>
   12c38:	e2918e93          	addi	t4,gp,-471 # 16260 <errpat+0x6c>
   12c3c:	00251513          	slli	a0,a0,0x2
   12c40:	01d50533          	add	a0,a0,t4
   12c44:	00052503          	lw	a0,0(a0)
   12c48:	01d50533          	add	a0,a0,t4
   12c4c:	00050067          	jr	a0
   12c50:	0017e793          	ori	a5,a5,1
   12c54:	00058513          	mv	a0,a1
   12c58:	f85ff06f          	j	12bdc <ee_printf+0x108>
   12c5c:	0107e793          	ori	a5,a5,16
   12c60:	00058513          	mv	a0,a1
   12c64:	f79ff06f          	j	12bdc <ee_printf+0x108>
   12c68:	0047e793          	ori	a5,a5,4
   12c6c:	00058513          	mv	a0,a1
   12c70:	f6dff06f          	j	12bdc <ee_printf+0x108>
   12c74:	0207e793          	ori	a5,a5,32
   12c78:	00058513          	mv	a0,a1
   12c7c:	f61ff06f          	j	12bdc <ee_printf+0x108>
   12c80:	0087e793          	ori	a5,a5,8
   12c84:	00058513          	mv	a0,a1
   12c88:	f55ff06f          	j	12bdc <ee_printf+0x108>
   12c8c:	00058a13          	mv	s4,a1
   12c90:	02500793          	li	a5,37
   12c94:	2cf60063          	beq	a2,a5,12f54 <ee_printf+0x480>
   12c98:	00f40023          	sb	a5,0(s0)
   12c9c:	000a4783          	lbu	a5,0(s4)
   12ca0:	00140413          	addi	s0,s0,1
   12ca4:	ec0782e3          	beqz	a5,12b68 <ee_printf+0x94>
   12ca8:	2b00006f          	j	12f58 <ee_printf+0x484>
   12cac:	00060e93          	mv	t4,a2
   12cb0:	0015c603          	lbu	a2,1(a1)
   12cb4:	00158a13          	addi	s4,a1,1
   12cb8:	fbf60513          	addi	a0,a2,-65
   12cbc:	0ff57513          	zext.b	a0,a0
   12cc0:	fcace8e3          	bltu	s9,a0,12c90 <ee_printf+0x1bc>
   12cc4:	f0918f13          	addi	t5,gp,-247 # 16340 <errpat+0x14c>
   12cc8:	00251513          	slli	a0,a0,0x2
   12ccc:	01e50533          	add	a0,a0,t5
   12cd0:	00052503          	lw	a0,0(a0)
   12cd4:	01e50533          	add	a0,a0,t5
   12cd8:	00050067          	jr	a0
   12cdc:	47c12083          	lw	ra,1148(sp)
   12ce0:	47812403          	lw	s0,1144(sp)
   12ce4:	41b686b3          	sub	a3,a3,s11
   12ce8:	46412a83          	lw	s5,1124(sp)
   12cec:	44c12d83          	lw	s11,1100(sp)
   12cf0:	00168513          	addi	a0,a3,1
   12cf4:	4a010113          	addi	sp,sp,1184
   12cf8:	00008067          	ret
   12cfc:	0015c603          	lbu	a2,1(a1)
   12d00:	00900e93          	li	t4,9
   12d04:	00158513          	addi	a0,a1,1
   12d08:	fd060713          	addi	a4,a2,-48
   12d0c:	0ff77713          	zext.b	a4,a4
   12d10:	1ceefa63          	bgeu	t4,a4,12ee4 <ee_printf+0x410>
   12d14:	02a00713          	li	a4,42
   12d18:	20e60863          	beq	a2,a4,12f28 <ee_printf+0x454>
   12d1c:	00050593          	mv	a1,a0
   12d20:	00000713          	li	a4,0
   12d24:	f01ff06f          	j	12c24 <ee_printf+0x150>
   12d28:	00000693          	li	a3,0
   12d2c:	00900513          	li	a0,9
   12d30:	00269713          	slli	a4,a3,0x2
   12d34:	00d70733          	add	a4,a4,a3
   12d38:	00158593          	addi	a1,a1,1
   12d3c:	00171713          	slli	a4,a4,0x1
   12d40:	00c70733          	add	a4,a4,a2
   12d44:	0005c603          	lbu	a2,0(a1)
   12d48:	fd070693          	addi	a3,a4,-48
   12d4c:	fd060713          	addi	a4,a2,-48
   12d50:	0ff77713          	zext.b	a4,a4
   12d54:	fce57ee3          	bgeu	a0,a4,12d30 <ee_printf+0x25c>
   12d58:	ec5ff06f          	j	12c1c <ee_printf+0x148>
   12d5c:	000aa683          	lw	a3,0(s5)
   12d60:	00254603          	lbu	a2,2(a0)
   12d64:	00250593          	addi	a1,a0,2
   12d68:	004a8a93          	addi	s5,s5,4
   12d6c:	ea06d8e3          	bgez	a3,12c1c <ee_printf+0x148>
   12d70:	40d006b3          	neg	a3,a3
   12d74:	0107e793          	ori	a5,a5,16
   12d78:	ea5ff06f          	j	12c1c <ee_printf+0x148>
   12d7c:	0407e793          	ori	a5,a5,64
   12d80:	01000613          	li	a2,16
   12d84:	000aa583          	lw	a1,0(s5)
   12d88:	004a8a93          	addi	s5,s5,4
   12d8c:	00040513          	mv	a0,s0
   12d90:	a11ff0ef          	jal	127a0 <number>
   12d94:	001a4783          	lbu	a5,1(s4)
   12d98:	00050413          	mv	s0,a0
   12d9c:	02e00313          	li	t1,46
   12da0:	001a0513          	addi	a0,s4,1
   12da4:	00900e13          	li	t3,9
   12da8:	da0794e3          	bnez	a5,12b50 <ee_printf+0x7c>
   12dac:	dbdff06f          	j	12b68 <ee_printf+0x94>
   12db0:	00058a13          	mv	s4,a1
   12db4:	00a00613          	li	a2,10
   12db8:	fcdff06f          	j	12d84 <ee_printf+0x2b0>
   12dbc:	00058a13          	mv	s4,a1
   12dc0:	000aa603          	lw	a2,0(s5)
   12dc4:	004a8a93          	addi	s5,s5,4
   12dc8:	1a060463          	beqz	a2,12f70 <ee_printf+0x49c>
   12dcc:	00064583          	lbu	a1,0(a2)
   12dd0:	62058663          	beqz	a1,133fc <ee_printf+0x928>
   12dd4:	62070463          	beqz	a4,133fc <ee_printf+0x928>
   12dd8:	00060593          	mv	a1,a2
   12ddc:	00c0006f          	j	12de8 <ee_printf+0x314>
   12de0:	40e58533          	sub	a0,a1,a4
   12de4:	00c50863          	beq	a0,a2,12df4 <ee_printf+0x320>
   12de8:	0015c503          	lbu	a0,1(a1)
   12dec:	00158593          	addi	a1,a1,1
   12df0:	fe0518e3          	bnez	a0,12de0 <ee_printf+0x30c>
   12df4:	0107f713          	andi	a4,a5,16
   12df8:	40c587b3          	sub	a5,a1,a2
   12dfc:	5a070863          	beqz	a4,133ac <ee_printf+0x8d8>
   12e00:	68f05c63          	blez	a5,13498 <ee_printf+0x9c4>
   12e04:	00f60533          	add	a0,a2,a5
   12e08:	00040713          	mv	a4,s0
   12e0c:	00064583          	lbu	a1,0(a2)
   12e10:	00160613          	addi	a2,a2,1
   12e14:	00170713          	addi	a4,a4,1
   12e18:	feb70fa3          	sb	a1,-1(a4)
   12e1c:	fea618e3          	bne	a2,a0,12e0c <ee_printf+0x338>
   12e20:	00f40733          	add	a4,s0,a5
   12e24:	40f68433          	sub	s0,a3,a5
   12e28:	001a0513          	addi	a0,s4,1
   12e2c:	00870433          	add	s0,a4,s0
   12e30:	02000613          	li	a2,32
   12e34:	62d7d863          	bge	a5,a3,13464 <ee_printf+0x990>
   12e38:	00170713          	addi	a4,a4,1
   12e3c:	fec70fa3          	sb	a2,-1(a4)
   12e40:	fe871ce3          	bne	a4,s0,12e38 <ee_printf+0x364>
   12e44:	001a4783          	lbu	a5,1(s4)
   12e48:	d00794e3          	bnez	a5,12b50 <ee_printf+0x7c>
   12e4c:	d1dff06f          	j	12b68 <ee_printf+0x94>
   12e50:	00058a13          	mv	s4,a1
   12e54:	fff00613          	li	a2,-1
   12e58:	0ec68863          	beq	a3,a2,12f48 <ee_printf+0x474>
   12e5c:	000aa583          	lw	a1,0(s5)
   12e60:	00040513          	mv	a0,s0
   12e64:	01000613          	li	a2,16
   12e68:	939ff0ef          	jal	127a0 <number>
   12e6c:	001a4783          	lbu	a5,1(s4)
   12e70:	00050413          	mv	s0,a0
   12e74:	004a8a93          	addi	s5,s5,4
   12e78:	001a0513          	addi	a0,s4,1
   12e7c:	00900e13          	li	t3,9
   12e80:	02e00313          	li	t1,46
   12e84:	cc0796e3          	bnez	a5,12b50 <ee_printf+0x7c>
   12e88:	ce1ff06f          	j	12b68 <ee_printf+0x94>
   12e8c:	00058a13          	mv	s4,a1
   12e90:	00800613          	li	a2,8
   12e94:	ef1ff06f          	j	12d84 <ee_printf+0x2b0>
   12e98:	00058a13          	mv	s4,a1
   12e9c:	0107f793          	andi	a5,a5,16
   12ea0:	004a8613          	addi	a2,s5,4
   12ea4:	001a0513          	addi	a0,s4,1
   12ea8:	0c078a63          	beqz	a5,12f7c <ee_printf+0x4a8>
   12eac:	000aa783          	lw	a5,0(s5)
   12eb0:	00100593          	li	a1,1
   12eb4:	00140713          	addi	a4,s0,1
   12eb8:	00f40023          	sb	a5,0(s0)
   12ebc:	02000793          	li	a5,32
   12ec0:	00d40433          	add	s0,s0,a3
   12ec4:	5ad5dc63          	bge	a1,a3,1347c <ee_printf+0x9a8>
   12ec8:	00170713          	addi	a4,a4,1
   12ecc:	fef70fa3          	sb	a5,-1(a4)
   12ed0:	fe871ce3          	bne	a4,s0,12ec8 <ee_printf+0x3f4>
   12ed4:	001a4783          	lbu	a5,1(s4)
   12ed8:	00060a93          	mv	s5,a2
   12edc:	c6079ae3          	bnez	a5,12b50 <ee_printf+0x7c>
   12ee0:	c89ff06f          	j	12b68 <ee_printf+0x94>
   12ee4:	00000e93          	li	t4,0
   12ee8:	00900f13          	li	t5,9
   12eec:	002e9713          	slli	a4,t4,0x2
   12ef0:	01d70733          	add	a4,a4,t4
   12ef4:	00150513          	addi	a0,a0,1
   12ef8:	00171713          	slli	a4,a4,0x1
   12efc:	00c70733          	add	a4,a4,a2
   12f00:	00054603          	lbu	a2,0(a0)
   12f04:	fd070e93          	addi	t4,a4,-48
   12f08:	fd060593          	addi	a1,a2,-48
   12f0c:	0ff5f593          	zext.b	a1,a1
   12f10:	fcbf7ee3          	bgeu	t5,a1,12eec <ee_printf+0x418>
   12f14:	fffec713          	not	a4,t4
   12f18:	41f75713          	srai	a4,a4,0x1f
   12f1c:	00eef733          	and	a4,t4,a4
   12f20:	00050593          	mv	a1,a0
   12f24:	d01ff06f          	j	12c24 <ee_printf+0x150>
   12f28:	000aa703          	lw	a4,0(s5)
   12f2c:	0025c603          	lbu	a2,2(a1)
   12f30:	004a8a93          	addi	s5,s5,4
   12f34:	fff74513          	not	a0,a4
   12f38:	41f55513          	srai	a0,a0,0x1f
   12f3c:	00a77733          	and	a4,a4,a0
   12f40:	00258593          	addi	a1,a1,2
   12f44:	ce1ff06f          	j	12c24 <ee_printf+0x150>
   12f48:	0017e793          	ori	a5,a5,1
   12f4c:	00800693          	li	a3,8
   12f50:	f0dff06f          	j	12e5c <ee_printf+0x388>
   12f54:	000a4783          	lbu	a5,0(s4)
   12f58:	00f40023          	sb	a5,0(s0)
   12f5c:	001a4783          	lbu	a5,1(s4)
   12f60:	00140413          	addi	s0,s0,1
   12f64:	001a0513          	addi	a0,s4,1
   12f68:	be0794e3          	bnez	a5,12b50 <ee_printf+0x7c>
   12f6c:	bfdff06f          	j	12b68 <ee_printf+0x94>
   12f70:	00003617          	auipc	a2,0x3
   12f74:	22860613          	addi	a2,a2,552 # 16198 <__subdf3+0xd08>
   12f78:	e5dff06f          	j	12dd4 <ee_printf+0x300>
   12f7c:	00100793          	li	a5,1
   12f80:	4ad7d463          	bge	a5,a3,13428 <ee_printf+0x954>
   12f84:	fff68793          	addi	a5,a3,-1
   12f88:	00f407b3          	add	a5,s0,a5
   12f8c:	02000713          	li	a4,32
   12f90:	00140413          	addi	s0,s0,1
   12f94:	fee40fa3          	sb	a4,-1(s0)
   12f98:	fef41ce3          	bne	s0,a5,12f90 <ee_printf+0x4bc>
   12f9c:	00000693          	li	a3,0
   12fa0:	f0dff06f          	j	12eac <ee_printf+0x3d8>
   12fa4:	06c00613          	li	a2,108
   12fa8:	0027e793          	ori	a5,a5,2
   12fac:	004a8513          	addi	a0,s5,4
   12fb0:	e0ce82e3          	beq	t4,a2,12db4 <ee_printf+0x2e0>
   12fb4:	000aa583          	lw	a1,0(s5)
   12fb8:	00a00613          	li	a2,10
   12fbc:	00050a93          	mv	s5,a0
   12fc0:	dcdff06f          	j	12d8c <ee_printf+0x2b8>
   12fc4:	47612023          	sw	s6,1120(sp)
   12fc8:	06c00713          	li	a4,108
   12fcc:	3cee8663          	beq	t4,a4,13398 <ee_printf+0x8c4>
   12fd0:	45712e23          	sw	s7,1116(sp)
   12fd4:	45a12823          	sw	s10,1104(sp)
   12fd8:	000aae83          	lw	t4,0(s5)
   12fdc:	004a8713          	addi	a4,s5,4
   12fe0:	00000d13          	li	s10,0
   12fe4:	00e12423          	sw	a4,8(sp)
   12fe8:	01ae8733          	add	a4,t4,s10
   12fec:	00074b83          	lbu	s7,0(a4)
   12ff0:	00000a93          	li	s5,0
   12ff4:	06300293          	li	t0,99
   12ff8:	03000f93          	li	t6,48
   12ffc:	00400613          	li	a2,4
   13000:	02e00f13          	li	t5,46
   13004:	001a8b13          	addi	s6,s5,1
   13008:	040b9063          	bnez	s7,13048 <ee_printf+0x574>
   1300c:	420a8713          	addi	a4,s5,1056
   13010:	02010593          	addi	a1,sp,32
   13014:	00b70ab3          	add	s5,a4,a1
   13018:	bffa8423          	sb	t6,-1048(s5)
   1301c:	001d0d13          	addi	s10,s10,1
   13020:	10cd0663          	beq	s10,a2,1312c <ee_printf+0x658>
   13024:	420b0713          	addi	a4,s6,1056
   13028:	02010593          	addi	a1,sp,32
   1302c:	00b70733          	add	a4,a4,a1
   13030:	bfe70423          	sb	t5,-1048(a4)
   13034:	01ae8733          	add	a4,t4,s10
   13038:	00074b83          	lbu	s7,0(a4)
   1303c:	001b0a93          	addi	s5,s6,1
   13040:	001a8b13          	addi	s6,s5,1
   13044:	fc0b84e3          	beqz	s7,1300c <ee_printf+0x538>
   13048:	2972d663          	bge	t0,s7,132d4 <ee_printf+0x800>
   1304c:	02010713          	addi	a4,sp,32
   13050:	00f12a23          	sw	a5,20(sp)
   13054:	420a8793          	addi	a5,s5,1056
   13058:	00e783b3          	add	t2,a5,a4
   1305c:	06400593          	li	a1,100
   13060:	000b8513          	mv	a0,s7
   13064:	00d12e23          	sw	a3,28(sp)
   13068:	01d12c23          	sw	t4,24(sp)
   1306c:	00712823          	sw	t2,16(sp)
   13070:	12c020ef          	jal	1519c <__divsi3>
   13074:	00003797          	auipc	a5,0x3
   13078:	0d478793          	addi	a5,a5,212 # 16148 <__subdf3+0xcb8>
   1307c:	00a78733          	add	a4,a5,a0
   13080:	00074083          	lbu	ra,0(a4)
   13084:	01012383          	lw	t2,16(sp)
   13088:	06400593          	li	a1,100
   1308c:	000b8513          	mv	a0,s7
   13090:	be138423          	sb	ra,-1048(t2)
   13094:	00f12623          	sw	a5,12(sp)
   13098:	188020ef          	jal	15220 <__modsi3>
   1309c:	420b0713          	addi	a4,s6,1056
   130a0:	02010793          	addi	a5,sp,32
   130a4:	00a00593          	li	a1,10
   130a8:	00f70b33          	add	s6,a4,a5
   130ac:	00050b93          	mv	s7,a0
   130b0:	0ec020ef          	jal	1519c <__divsi3>
   130b4:	00003797          	auipc	a5,0x3
   130b8:	09478793          	addi	a5,a5,148 # 16148 <__subdf3+0xcb8>
   130bc:	00a785b3          	add	a1,a5,a0
   130c0:	0005c383          	lbu	t2,0(a1)
   130c4:	000b8513          	mv	a0,s7
   130c8:	00a00593          	li	a1,10
   130cc:	be7b0423          	sb	t2,-1048(s6)
   130d0:	150020ef          	jal	15220 <__modsi3>
   130d4:	01412783          	lw	a5,20(sp)
   130d8:	01812e83          	lw	t4,24(sp)
   130dc:	01c12683          	lw	a3,28(sp)
   130e0:	002a8a93          	addi	s5,s5,2
   130e4:	00050b93          	mv	s7,a0
   130e8:	001a8b13          	addi	s6,s5,1
   130ec:	00003717          	auipc	a4,0x3
   130f0:	05c70713          	addi	a4,a4,92 # 16148 <__subdf3+0xcb8>
   130f4:	00400613          	li	a2,4
   130f8:	06300293          	li	t0,99
   130fc:	03000f93          	li	t6,48
   13100:	02e00f13          	li	t5,46
   13104:	00900e13          	li	t3,9
   13108:	02e00313          	li	t1,46
   1310c:	01770733          	add	a4,a4,s7
   13110:	00074703          	lbu	a4,0(a4)
   13114:	420a8593          	addi	a1,s5,1056
   13118:	02010513          	addi	a0,sp,32
   1311c:	00a58ab3          	add	s5,a1,a0
   13120:	beea8423          	sb	a4,-1048(s5)
   13124:	001d0d13          	addi	s10,s10,1
   13128:	eecd1ee3          	bne	s10,a2,13024 <ee_printf+0x550>
   1312c:	0107f793          	andi	a5,a5,16
   13130:	02079663          	bnez	a5,1315c <ee_printf+0x688>
   13134:	fff68613          	addi	a2,a3,-1
   13138:	34db5c63          	bge	s6,a3,13490 <ee_printf+0x9bc>
   1313c:	416687b3          	sub	a5,a3,s6
   13140:	00f407b3          	add	a5,s0,a5
   13144:	02000713          	li	a4,32
   13148:	00140413          	addi	s0,s0,1
   1314c:	fee40fa3          	sb	a4,-1(s0)
   13150:	fef41ce3          	bne	s0,a5,13148 <ee_printf+0x674>
   13154:	40db06b3          	sub	a3,s6,a3
   13158:	00c686b3          	add	a3,a3,a2
   1315c:	2f605863          	blez	s6,1344c <ee_printf+0x978>
   13160:	02810713          	addi	a4,sp,40
   13164:	016407b3          	add	a5,s0,s6
   13168:	00074603          	lbu	a2,0(a4)
   1316c:	00140413          	addi	s0,s0,1
   13170:	00170713          	addi	a4,a4,1
   13174:	fec40fa3          	sb	a2,-1(s0)
   13178:	fef418e3          	bne	s0,a5,13168 <ee_printf+0x694>
   1317c:	2cdb5463          	bge	s6,a3,13444 <ee_printf+0x970>
   13180:	41668b33          	sub	s6,a3,s6
   13184:	01678433          	add	s0,a5,s6
   13188:	02000713          	li	a4,32
   1318c:	00178793          	addi	a5,a5,1
   13190:	fee78fa3          	sb	a4,-1(a5)
   13194:	fef41ce3          	bne	s0,a5,1318c <ee_printf+0x6b8>
   13198:	001a4783          	lbu	a5,1(s4)
   1319c:	00812a83          	lw	s5,8(sp)
   131a0:	46012b03          	lw	s6,1120(sp)
   131a4:	45c12b83          	lw	s7,1116(sp)
   131a8:	45012d03          	lw	s10,1104(sp)
   131ac:	001a0513          	addi	a0,s4,1
   131b0:	9a0790e3          	bnez	a5,12b50 <ee_printf+0x7c>
   131b4:	9b5ff06f          	j	12b68 <ee_printf+0x94>
   131b8:	47612023          	sw	s6,1120(sp)
   131bc:	06c00713          	li	a4,108
   131c0:	0407e793          	ori	a5,a5,64
   131c4:	e0ee96e3          	bne	t4,a4,12fd0 <ee_printf+0x4fc>
   131c8:	000aaf83          	lw	t6,0(s5)
   131cc:	00003f17          	auipc	t5,0x3
   131d0:	fa4f0f13          	addi	t5,t5,-92 # 16170 <__subdf3+0xce0>
   131d4:	004a8a93          	addi	s5,s5,4
   131d8:	00000613          	li	a2,0
   131dc:	00000e93          	li	t4,0
   131e0:	00600293          	li	t0,6
   131e4:	03a00393          	li	t2,58
   131e8:	0140006f          	j	131fc <ee_printf+0x728>
   131ec:	422e8713          	addi	a4,t4,1058
   131f0:	01070533          	add	a0,a4,a6
   131f4:	003e8e93          	addi	t4,t4,3
   131f8:	be750423          	sb	t2,-1048(a0)
   131fc:	00cf8733          	add	a4,t6,a2
   13200:	00074703          	lbu	a4,0(a4)
   13204:	02010813          	addi	a6,sp,32
   13208:	00160613          	addi	a2,a2,1
   1320c:	00475513          	srli	a0,a4,0x4
   13210:	00f77713          	andi	a4,a4,15
   13214:	00ef0733          	add	a4,t5,a4
   13218:	00af0533          	add	a0,t5,a0
   1321c:	00074a03          	lbu	s4,0(a4)
   13220:	00054b03          	lbu	s6,0(a0)
   13224:	420e8713          	addi	a4,t4,1056
   13228:	01070733          	add	a4,a4,a6
   1322c:	bf670423          	sb	s6,-1048(a4)
   13230:	bf4704a3          	sb	s4,-1047(a4)
   13234:	fa561ce3          	bne	a2,t0,131ec <ee_printf+0x718>
   13238:	0107f793          	andi	a5,a5,16
   1323c:	02079863          	bnez	a5,1326c <ee_printf+0x798>
   13240:	01100793          	li	a5,17
   13244:	fff68613          	addi	a2,a3,-1
   13248:	24d7dc63          	bge	a5,a3,134a0 <ee_printf+0x9cc>
   1324c:	fef68793          	addi	a5,a3,-17
   13250:	00f407b3          	add	a5,s0,a5
   13254:	02000713          	li	a4,32
   13258:	00140413          	addi	s0,s0,1
   1325c:	fee40fa3          	sb	a4,-1(s0)
   13260:	fef41ce3          	bne	s0,a5,13258 <ee_printf+0x784>
   13264:	40d60633          	sub	a2,a2,a3
   13268:	01160693          	addi	a3,a2,17
   1326c:	02810613          	addi	a2,sp,40
   13270:	01140793          	addi	a5,s0,17
   13274:	00040713          	mv	a4,s0
   13278:	00064503          	lbu	a0,0(a2)
   1327c:	00170713          	addi	a4,a4,1
   13280:	00160613          	addi	a2,a2,1
   13284:	fea70fa3          	sb	a0,-1(a4)
   13288:	fef718e3          	bne	a4,a5,13278 <ee_printf+0x7a4>
   1328c:	01100613          	li	a2,17
   13290:	1ed65263          	bge	a2,a3,13474 <ee_printf+0x9a0>
   13294:	00d40433          	add	s0,s0,a3
   13298:	02000713          	li	a4,32
   1329c:	00178793          	addi	a5,a5,1
   132a0:	fee78fa3          	sb	a4,-1(a5)
   132a4:	fef41ce3          	bne	s0,a5,1329c <ee_printf+0x7c8>
   132a8:	0025c783          	lbu	a5,2(a1)
   132ac:	46012b03          	lw	s6,1120(sp)
   132b0:	00258513          	addi	a0,a1,2
   132b4:	88079ee3          	bnez	a5,12b50 <ee_printf+0x7c>
   132b8:	8b1ff06f          	j	12b68 <ee_printf+0x94>
   132bc:	47612023          	sw	s6,1120(sp)
   132c0:	45712e23          	sw	s7,1116(sp)
   132c4:	45a12823          	sw	s10,1104(sp)
   132c8:	0407e793          	ori	a5,a5,64
   132cc:	00058a13          	mv	s4,a1
   132d0:	d09ff06f          	j	12fd8 <ee_printf+0x504>
   132d4:	00900593          	li	a1,9
   132d8:	00003717          	auipc	a4,0x3
   132dc:	e7070713          	addi	a4,a4,-400 # 16148 <__subdf3+0xcb8>
   132e0:	e375d6e3          	bge	a1,s7,1310c <ee_printf+0x638>
   132e4:	02010713          	addi	a4,sp,32
   132e8:	00f12823          	sw	a5,16(sp)
   132ec:	00a00593          	li	a1,10
   132f0:	420a8793          	addi	a5,s5,1056
   132f4:	000b8513          	mv	a0,s7
   132f8:	00e78ab3          	add	s5,a5,a4
   132fc:	00d12c23          	sw	a3,24(sp)
   13300:	01d12a23          	sw	t4,20(sp)
   13304:	699010ef          	jal	1519c <__divsi3>
   13308:	00003717          	auipc	a4,0x3
   1330c:	e4070713          	addi	a4,a4,-448 # 16148 <__subdf3+0xcb8>
   13310:	00a705b3          	add	a1,a4,a0
   13314:	0005c383          	lbu	t2,0(a1)
   13318:	000b8513          	mv	a0,s7
   1331c:	00a00593          	li	a1,10
   13320:	be7a8423          	sb	t2,-1048(s5)
   13324:	00e12623          	sw	a4,12(sp)
   13328:	6f9010ef          	jal	15220 <__modsi3>
   1332c:	000b0a93          	mv	s5,s6
   13330:	01812683          	lw	a3,24(sp)
   13334:	01412e83          	lw	t4,20(sp)
   13338:	01012783          	lw	a5,16(sp)
   1333c:	00050b93          	mv	s7,a0
   13340:	001b0b13          	addi	s6,s6,1
   13344:	02e00313          	li	t1,46
   13348:	00900e13          	li	t3,9
   1334c:	02e00f13          	li	t5,46
   13350:	03000f93          	li	t6,48
   13354:	06300293          	li	t0,99
   13358:	00400613          	li	a2,4
   1335c:	00003717          	auipc	a4,0x3
   13360:	dec70713          	addi	a4,a4,-532 # 16148 <__subdf3+0xcb8>
   13364:	da9ff06f          	j	1310c <ee_printf+0x638>
   13368:	04010d93          	addi	s11,sp,64
   1336c:	000d8413          	mv	s0,s11
   13370:	00040023          	sb	zero,0(s0)
   13374:	04014783          	lbu	a5,64(sp)
   13378:	80079ae3          	bnez	a5,12b8c <ee_printf+0xb8>
   1337c:	47c12083          	lw	ra,1148(sp)
   13380:	47812403          	lw	s0,1144(sp)
   13384:	46412a83          	lw	s5,1124(sp)
   13388:	44c12d83          	lw	s11,1100(sp)
   1338c:	00000513          	li	a0,0
   13390:	4a010113          	addi	sp,sp,1184
   13394:	00008067          	ret
   13398:	000aaf83          	lw	t6,0(s5)
   1339c:	00003f17          	auipc	t5,0x3
   133a0:	dacf0f13          	addi	t5,t5,-596 # 16148 <__subdf3+0xcb8>
   133a4:	004a8a93          	addi	s5,s5,4
   133a8:	e31ff06f          	j	131d8 <ee_printf+0x704>
   133ac:	fff68513          	addi	a0,a3,-1
   133b0:	0ed7dc63          	bge	a5,a3,134a8 <ee_printf+0x9d4>
   133b4:	40f68733          	sub	a4,a3,a5
   133b8:	00e40733          	add	a4,s0,a4
   133bc:	02000593          	li	a1,32
   133c0:	00140413          	addi	s0,s0,1
   133c4:	feb40fa3          	sb	a1,-1(s0)
   133c8:	fee41ce3          	bne	s0,a4,133c0 <ee_printf+0x8ec>
   133cc:	40d786b3          	sub	a3,a5,a3
   133d0:	00a686b3          	add	a3,a3,a0
   133d4:	a2dff06f          	j	12e00 <ee_printf+0x32c>
   133d8:	0027e793          	ori	a5,a5,2
   133dc:	004a8513          	addi	a0,s5,4
   133e0:	00058a13          	mv	s4,a1
   133e4:	bd1ff06f          	j	12fb4 <ee_printf+0x4e0>
   133e8:	47612023          	sw	s6,1120(sp)
   133ec:	45712e23          	sw	s7,1116(sp)
   133f0:	45a12823          	sw	s10,1104(sp)
   133f4:	00058a13          	mv	s4,a1
   133f8:	be1ff06f          	j	12fd8 <ee_printf+0x504>
   133fc:	0107f793          	andi	a5,a5,16
   13400:	04078a63          	beqz	a5,13454 <ee_printf+0x980>
   13404:	00040713          	mv	a4,s0
   13408:	00000793          	li	a5,0
   1340c:	a19ff06f          	j	12e24 <ee_printf+0x350>
   13410:	0407e793          	ori	a5,a5,64
   13414:	00058a13          	mv	s4,a1
   13418:	01000613          	li	a2,16
   1341c:	969ff06f          	j	12d84 <ee_printf+0x2b0>
   13420:	00058a13          	mv	s4,a1
   13424:	95dff06f          	j	12d80 <ee_printf+0x2ac>
   13428:	000aa783          	lw	a5,0(s5)
   1342c:	00140413          	addi	s0,s0,1
   13430:	00060a93          	mv	s5,a2
   13434:	fef40fa3          	sb	a5,-1(s0)
   13438:	001a4783          	lbu	a5,1(s4)
   1343c:	f0079a63          	bnez	a5,12b50 <ee_printf+0x7c>
   13440:	f28ff06f          	j	12b68 <ee_printf+0x94>
   13444:	00078413          	mv	s0,a5
   13448:	d51ff06f          	j	13198 <ee_printf+0x6c4>
   1344c:	00040793          	mv	a5,s0
   13450:	d2dff06f          	j	1317c <ee_printf+0x6a8>
   13454:	fff68513          	addi	a0,a3,-1
   13458:	f4d04ee3          	bgtz	a3,133b4 <ee_printf+0x8e0>
   1345c:	001a0513          	addi	a0,s4,1
   13460:	00040713          	mv	a4,s0
   13464:	001a4783          	lbu	a5,1(s4)
   13468:	00070413          	mv	s0,a4
   1346c:	ee079263          	bnez	a5,12b50 <ee_printf+0x7c>
   13470:	ef8ff06f          	j	12b68 <ee_printf+0x94>
   13474:	00070413          	mv	s0,a4
   13478:	e31ff06f          	j	132a8 <ee_printf+0x7d4>
   1347c:	001a4783          	lbu	a5,1(s4)
   13480:	00060a93          	mv	s5,a2
   13484:	00070413          	mv	s0,a4
   13488:	ec079463          	bnez	a5,12b50 <ee_printf+0x7c>
   1348c:	edcff06f          	j	12b68 <ee_printf+0x94>
   13490:	00060693          	mv	a3,a2
   13494:	cc9ff06f          	j	1315c <ee_printf+0x688>
   13498:	00040713          	mv	a4,s0
   1349c:	989ff06f          	j	12e24 <ee_printf+0x350>
   134a0:	00060693          	mv	a3,a2
   134a4:	dc9ff06f          	j	1326c <ee_printf+0x798>
   134a8:	00050693          	mv	a3,a0
   134ac:	955ff06f          	j	12e00 <ee_printf+0x32c>

000134b0 <cvt>:
   134b0:	fa010113          	addi	sp,sp,-96
   134b4:	04812c23          	sw	s0,88(sp)
   134b8:	04912a23          	sw	s1,84(sp)
   134bc:	05212823          	sw	s2,80(sp)
   134c0:	05312623          	sw	s3,76(sp)
   134c4:	05412423          	sw	s4,72(sp)
   134c8:	04112e23          	sw	ra,92(sp)
   134cc:	05512223          	sw	s5,68(sp)
   134d0:	05612023          	sw	s6,64(sp)
   134d4:	03712e23          	sw	s7,60(sp)
   134d8:	03812c23          	sw	s8,56(sp)
   134dc:	03912a23          	sw	s9,52(sp)
   134e0:	03a12823          	sw	s10,48(sp)
   134e4:	04e00893          	li	a7,78
   134e8:	01012423          	sw	a6,8(sp)
   134ec:	00050913          	mv	s2,a0
   134f0:	00058413          	mv	s0,a1
   134f4:	00068a13          	mv	s4,a3
   134f8:	00070493          	mv	s1,a4
   134fc:	00078993          	mv	s3,a5
   13500:	22c8de63          	bge	a7,a2,1373c <cvt+0x28c>
   13504:	04e00793          	li	a5,78
   13508:	00f12623          	sw	a5,12(sp)
   1350c:	00090513          	mv	a0,s2
   13510:	00040593          	mv	a1,s0
   13514:	00000613          	li	a2,0
   13518:	00000693          	li	a3,0
   1351c:	450010ef          	jal	1496c <__ledf2>
   13520:	00000713          	li	a4,0
   13524:	00055863          	bgez	a0,13534 <cvt+0x84>
   13528:	800007b7          	lui	a5,0x80000
   1352c:	0087c433          	xor	s0,a5,s0
   13530:	00100713          	li	a4,1
   13534:	00040593          	mv	a1,s0
   13538:	00e4a023          	sw	a4,0(s1)
   1353c:	01010613          	addi	a2,sp,16
   13540:	00090513          	mv	a0,s2
   13544:	555010ef          	jal	15298 <modf>
   13548:	01012b83          	lw	s7,16(sp)
   1354c:	01412c03          	lw	s8,20(sp)
   13550:	00058493          	mv	s1,a1
   13554:	00050413          	mv	s0,a0
   13558:	00000613          	li	a2,0
   1355c:	00000693          	li	a3,0
   13560:	000b8513          	mv	a0,s7
   13564:	000c0593          	mv	a1,s8
   13568:	29c010ef          	jal	14804 <__eqdf2>
   1356c:	22050063          	beqz	a0,1378c <cvt+0x2dc>
   13570:	05098c93          	addi	s9,s3,80
   13574:	03b12623          	sw	s11,44(sp)
   13578:	00003a97          	auipc	s5,0x3
   1357c:	060a8a93          	addi	s5,s5,96 # 165d8 <seed1_volatile+0x4>
   13580:	000c8b13          	mv	s6,s9
   13584:	00003d97          	auipc	s11,0x3
   13588:	05cd8d93          	addi	s11,s11,92 # 165e0 <seed1_volatile+0xc>
   1358c:	05000d13          	li	s10,80
   13590:	00003797          	auipc	a5,0x3
   13594:	04878793          	addi	a5,a5,72 # 165d8 <seed1_volatile+0x4>
   13598:	0007a603          	lw	a2,0(a5)
   1359c:	0047a683          	lw	a3,4(a5)
   135a0:	000b8513          	mv	a0,s7
   135a4:	000c0593          	mv	a1,s8
   135a8:	281000ef          	jal	14028 <__divdf3>
   135ac:	01010613          	addi	a2,sp,16
   135b0:	4e9010ef          	jal	15298 <modf>
   135b4:	000da603          	lw	a2,0(s11)
   135b8:	004da683          	lw	a3,4(s11)
   135bc:	00a12c23          	sw	a0,24(sp)
   135c0:	00b12e23          	sw	a1,28(sp)
   135c4:	2d0000ef          	jal	13894 <__adddf3>
   135c8:	000aa603          	lw	a2,0(s5)
   135cc:	004aa683          	lw	a3,4(s5)
   135d0:	fffb0b13          	addi	s6,s6,-1
   135d4:	416d0933          	sub	s2,s10,s6
   135d8:	470010ef          	jal	14a48 <__muldf3>
   135dc:	31d010ef          	jal	150f8 <__fixdfsi>
   135e0:	01012b83          	lw	s7,16(sp)
   135e4:	01412c03          	lw	s8,20(sp)
   135e8:	03050513          	addi	a0,a0,48
   135ec:	00ab0023          	sb	a0,0(s6)
   135f0:	00000613          	li	a2,0
   135f4:	00000693          	li	a3,0
   135f8:	000b8513          	mv	a0,s7
   135fc:	000c0593          	mv	a1,s8
   13600:	01298933          	add	s2,s3,s2
   13604:	200010ef          	jal	14804 <__eqdf2>
   13608:	f80514e3          	bnez	a0,13590 <cvt+0xe0>
   1360c:	259b7a63          	bgeu	s6,s9,13860 <cvt+0x3b0>
   13610:	00098793          	mv	a5,s3
   13614:	000b4703          	lbu	a4,0(s6)
   13618:	001b0b13          	addi	s6,s6,1
   1361c:	00178793          	addi	a5,a5,1
   13620:	fee78fa3          	sb	a4,-1(a5)
   13624:	ff6c98e3          	bne	s9,s6,13614 <cvt+0x164>
   13628:	02c12d83          	lw	s11,44(sp)
   1362c:	01298cb3          	add	s9,s3,s2
   13630:	00c12783          	lw	a5,12(sp)
   13634:	00f98d33          	add	s10,s3,a5
   13638:	00812783          	lw	a5,8(sp)
   1363c:	00079463          	bnez	a5,13644 <cvt+0x194>
   13640:	012d0d33          	add	s10,s10,s2
   13644:	012a2023          	sw	s2,0(s4)
   13648:	1f3d6e63          	bltu	s10,s3,13844 <cvt+0x394>
   1364c:	05098913          	addi	s2,s3,80
   13650:	079d6063          	bltu	s10,s9,136b0 <cvt+0x200>
   13654:	00003a97          	auipc	s5,0x3
   13658:	f84a8a93          	addi	s5,s5,-124 # 165d8 <seed1_volatile+0x4>
   1365c:	052cfa63          	bgeu	s9,s2,136b0 <cvt+0x200>
   13660:	000aab03          	lw	s6,0(s5)
   13664:	004aab83          	lw	s7,4(s5)
   13668:	0080006f          	j	13670 <cvt+0x1c0>
   1366c:	1f990063          	beq	s2,s9,1384c <cvt+0x39c>
   13670:	000b8693          	mv	a3,s7
   13674:	00040513          	mv	a0,s0
   13678:	00048593          	mv	a1,s1
   1367c:	000b0613          	mv	a2,s6
   13680:	3c8010ef          	jal	14a48 <__muldf3>
   13684:	01810613          	addi	a2,sp,24
   13688:	411010ef          	jal	15298 <modf>
   1368c:	00050413          	mv	s0,a0
   13690:	00058493          	mv	s1,a1
   13694:	01812503          	lw	a0,24(sp)
   13698:	01c12583          	lw	a1,28(sp)
   1369c:	001c8c93          	addi	s9,s9,1
   136a0:	259010ef          	jal	150f8 <__fixdfsi>
   136a4:	03050513          	addi	a0,a0,48
   136a8:	feac8fa3          	sb	a0,-1(s9)
   136ac:	fd9d70e3          	bgeu	s10,s9,1366c <cvt+0x1bc>
   136b0:	192d7e63          	bgeu	s10,s2,1384c <cvt+0x39c>
   136b4:	000d4783          	lbu	a5,0(s10)
   136b8:	03900713          	li	a4,57
   136bc:	00578793          	addi	a5,a5,5
   136c0:	0ff7f793          	zext.b	a5,a5
   136c4:	00fd0023          	sb	a5,0(s10)
   136c8:	02f77a63          	bgeu	a4,a5,136fc <cvt+0x24c>
   136cc:	000d0793          	mv	a5,s10
   136d0:	03000693          	li	a3,48
   136d4:	03100593          	li	a1,49
   136d8:	03900613          	li	a2,57
   136dc:	00d78023          	sb	a3,0(a5)
   136e0:	06f9f863          	bgeu	s3,a5,13750 <cvt+0x2a0>
   136e4:	fff7c703          	lbu	a4,-1(a5)
   136e8:	fff78793          	addi	a5,a5,-1
   136ec:	00170713          	addi	a4,a4,1
   136f0:	0ff77713          	zext.b	a4,a4
   136f4:	00e78023          	sb	a4,0(a5)
   136f8:	fee662e3          	bltu	a2,a4,136dc <cvt+0x22c>
   136fc:	000d0023          	sb	zero,0(s10)
   13700:	05c12083          	lw	ra,92(sp)
   13704:	05812403          	lw	s0,88(sp)
   13708:	05412483          	lw	s1,84(sp)
   1370c:	05012903          	lw	s2,80(sp)
   13710:	04812a03          	lw	s4,72(sp)
   13714:	04412a83          	lw	s5,68(sp)
   13718:	04012b03          	lw	s6,64(sp)
   1371c:	03c12b83          	lw	s7,60(sp)
   13720:	03812c03          	lw	s8,56(sp)
   13724:	03412c83          	lw	s9,52(sp)
   13728:	03012d03          	lw	s10,48(sp)
   1372c:	00098513          	mv	a0,s3
   13730:	04c12983          	lw	s3,76(sp)
   13734:	06010113          	addi	sp,sp,96
   13738:	00008067          	ret
   1373c:	fff64693          	not	a3,a2
   13740:	41f6d693          	srai	a3,a3,0x1f
   13744:	00d677b3          	and	a5,a2,a3
   13748:	00f12623          	sw	a5,12(sp)
   1374c:	dc1ff06f          	j	1350c <cvt+0x5c>
   13750:	00b78023          	sb	a1,0(a5)
   13754:	000a2703          	lw	a4,0(s4)
   13758:	00170713          	addi	a4,a4,1
   1375c:	00ea2023          	sw	a4,0(s4)
   13760:	00812703          	lw	a4,8(sp)
   13764:	00070863          	beqz	a4,13774 <cvt+0x2c4>
   13768:	0007c703          	lbu	a4,0(a5)
   1376c:	f6e668e3          	bltu	a2,a4,136dc <cvt+0x22c>
   13770:	f8dff06f          	j	136fc <cvt+0x24c>
   13774:	01a9f463          	bgeu	s3,s10,1377c <cvt+0x2cc>
   13778:	00dd0023          	sb	a3,0(s10)
   1377c:	0007c703          	lbu	a4,0(a5)
   13780:	001d0d13          	addi	s10,s10,1
   13784:	f4e66ce3          	bltu	a2,a4,136dc <cvt+0x22c>
   13788:	f75ff06f          	j	136fc <cvt+0x24c>
   1378c:	00040513          	mv	a0,s0
   13790:	00048593          	mv	a1,s1
   13794:	00000613          	li	a2,0
   13798:	00000693          	li	a3,0
   1379c:	0f4010ef          	jal	14890 <__gedf2>
   137a0:	0aa05a63          	blez	a0,13854 <cvt+0x3a4>
   137a4:	00003a97          	auipc	s5,0x3
   137a8:	e34a8a93          	addi	s5,s5,-460 # 165d8 <seed1_volatile+0x4>
   137ac:	000aa603          	lw	a2,0(s5)
   137b0:	004aa683          	lw	a3,4(s5)
   137b4:	00040513          	mv	a0,s0
   137b8:	00048593          	mv	a1,s1
   137bc:	28c010ef          	jal	14a48 <__muldf3>
   137c0:	00003797          	auipc	a5,0x3
   137c4:	e2878793          	addi	a5,a5,-472 # 165e8 <seed1_volatile+0x14>
   137c8:	0007ab03          	lw	s6,0(a5)
   137cc:	0047ab83          	lw	s7,4(a5)
   137d0:	00050d13          	mv	s10,a0
   137d4:	000b0613          	mv	a2,s6
   137d8:	000b8693          	mv	a3,s7
   137dc:	00058c93          	mv	s9,a1
   137e0:	18c010ef          	jal	1496c <__ledf2>
   137e4:	00000913          	li	s2,0
   137e8:	04055663          	bgez	a0,13834 <cvt+0x384>
   137ec:	000aa783          	lw	a5,0(s5)
   137f0:	004aa803          	lw	a6,4(s5)
   137f4:	00f12023          	sw	a5,0(sp)
   137f8:	01012223          	sw	a6,4(sp)
   137fc:	00012603          	lw	a2,0(sp)
   13800:	00412683          	lw	a3,4(sp)
   13804:	000d0513          	mv	a0,s10
   13808:	000c8593          	mv	a1,s9
   1380c:	23c010ef          	jal	14a48 <__muldf3>
   13810:	000b0613          	mv	a2,s6
   13814:	000b8693          	mv	a3,s7
   13818:	000d0413          	mv	s0,s10
   1381c:	000c8493          	mv	s1,s9
   13820:	fff90913          	addi	s2,s2,-1
   13824:	00050d13          	mv	s10,a0
   13828:	00058c93          	mv	s9,a1
   1382c:	140010ef          	jal	1496c <__ledf2>
   13830:	fc0546e3          	bltz	a0,137fc <cvt+0x34c>
   13834:	01912e23          	sw	s9,28(sp)
   13838:	01a12c23          	sw	s10,24(sp)
   1383c:	00098c93          	mv	s9,s3
   13840:	df1ff06f          	j	13630 <cvt+0x180>
   13844:	00098023          	sb	zero,0(s3)
   13848:	eb9ff06f          	j	13700 <cvt+0x250>
   1384c:	040987a3          	sb	zero,79(s3)
   13850:	eb1ff06f          	j	13700 <cvt+0x250>
   13854:	00098c93          	mv	s9,s3
   13858:	00000913          	li	s2,0
   1385c:	dd5ff06f          	j	13630 <cvt+0x180>
   13860:	02c12d83          	lw	s11,44(sp)
   13864:	00098c93          	mv	s9,s3
   13868:	dc9ff06f          	j	13630 <cvt+0x180>

0001386c <ecvt>:
   1386c:	00100813          	li	a6,1
   13870:	13d18793          	addi	a5,gp,317 # 16574 <CVTBUF>
   13874:	c3dff06f          	j	134b0 <cvt>

00013878 <ecvtbuf>:
   13878:	00100813          	li	a6,1
   1387c:	c35ff06f          	j	134b0 <cvt>

00013880 <fcvt>:
   13880:	00000813          	li	a6,0
   13884:	13d18793          	addi	a5,gp,317 # 16574 <CVTBUF>
   13888:	c29ff06f          	j	134b0 <cvt>

0001388c <fcvtbuf>:
   1388c:	00000813          	li	a6,0
   13890:	c21ff06f          	j	134b0 <cvt>

00013894 <__adddf3>:
   13894:	00100837          	lui	a6,0x100
   13898:	fff80813          	addi	a6,a6,-1 # fffff <__stack_end+0xe7fff>
   1389c:	fe010113          	addi	sp,sp,-32
   138a0:	00b878b3          	and	a7,a6,a1
   138a4:	0145d713          	srli	a4,a1,0x14
   138a8:	01d55793          	srli	a5,a0,0x1d
   138ac:	00d87833          	and	a6,a6,a3
   138b0:	00912a23          	sw	s1,20(sp)
   138b4:	7ff77493          	andi	s1,a4,2047
   138b8:	00389713          	slli	a4,a7,0x3
   138bc:	0146d893          	srli	a7,a3,0x14
   138c0:	00381813          	slli	a6,a6,0x3
   138c4:	01212823          	sw	s2,16(sp)
   138c8:	00e7e7b3          	or	a5,a5,a4
   138cc:	7ff8f893          	andi	a7,a7,2047
   138d0:	01d65713          	srli	a4,a2,0x1d
   138d4:	00112e23          	sw	ra,28(sp)
   138d8:	00812c23          	sw	s0,24(sp)
   138dc:	01312623          	sw	s3,12(sp)
   138e0:	01f5d913          	srli	s2,a1,0x1f
   138e4:	01f6d693          	srli	a3,a3,0x1f
   138e8:	01076733          	or	a4,a4,a6
   138ec:	00351513          	slli	a0,a0,0x3
   138f0:	00361613          	slli	a2,a2,0x3
   138f4:	41148833          	sub	a6,s1,a7
   138f8:	2ad91a63          	bne	s2,a3,13bac <__adddf3+0x318>
   138fc:	11005c63          	blez	a6,13a14 <__adddf3+0x180>
   13900:	04089063          	bnez	a7,13940 <__adddf3+0xac>
   13904:	00c766b3          	or	a3,a4,a2
   13908:	66068063          	beqz	a3,13f68 <__adddf3+0x6d4>
   1390c:	fff80593          	addi	a1,a6,-1
   13910:	02059063          	bnez	a1,13930 <__adddf3+0x9c>
   13914:	00c50633          	add	a2,a0,a2
   13918:	00a636b3          	sltu	a3,a2,a0
   1391c:	00e78733          	add	a4,a5,a4
   13920:	00060513          	mv	a0,a2
   13924:	00d707b3          	add	a5,a4,a3
   13928:	00100493          	li	s1,1
   1392c:	06c0006f          	j	13998 <__adddf3+0x104>
   13930:	7ff00693          	li	a3,2047
   13934:	02d81063          	bne	a6,a3,13954 <__adddf3+0xc0>
   13938:	7ff00493          	li	s1,2047
   1393c:	1f80006f          	j	13b34 <__adddf3+0x2a0>
   13940:	7ff00693          	li	a3,2047
   13944:	1ed48863          	beq	s1,a3,13b34 <__adddf3+0x2a0>
   13948:	008006b7          	lui	a3,0x800
   1394c:	00d76733          	or	a4,a4,a3
   13950:	00080593          	mv	a1,a6
   13954:	03800693          	li	a3,56
   13958:	0ab6c863          	blt	a3,a1,13a08 <__adddf3+0x174>
   1395c:	01f00693          	li	a3,31
   13960:	06b6ca63          	blt	a3,a1,139d4 <__adddf3+0x140>
   13964:	02000813          	li	a6,32
   13968:	40b80833          	sub	a6,a6,a1
   1396c:	010716b3          	sll	a3,a4,a6
   13970:	00b658b3          	srl	a7,a2,a1
   13974:	01061833          	sll	a6,a2,a6
   13978:	0116e6b3          	or	a3,a3,a7
   1397c:	01003833          	snez	a6,a6
   13980:	0106e6b3          	or	a3,a3,a6
   13984:	00b755b3          	srl	a1,a4,a1
   13988:	00a68533          	add	a0,a3,a0
   1398c:	00f585b3          	add	a1,a1,a5
   13990:	00d536b3          	sltu	a3,a0,a3
   13994:	00d587b3          	add	a5,a1,a3
   13998:	00879713          	slli	a4,a5,0x8
   1399c:	18075c63          	bgez	a4,13b34 <__adddf3+0x2a0>
   139a0:	00148493          	addi	s1,s1,1
   139a4:	7ff00713          	li	a4,2047
   139a8:	5ae48a63          	beq	s1,a4,13f5c <__adddf3+0x6c8>
   139ac:	ff800737          	lui	a4,0xff800
   139b0:	fff70713          	addi	a4,a4,-1 # ff7fffff <__stack_end+0xff7e7fff>
   139b4:	00e7f733          	and	a4,a5,a4
   139b8:	00155793          	srli	a5,a0,0x1
   139bc:	00157513          	andi	a0,a0,1
   139c0:	00a7e7b3          	or	a5,a5,a0
   139c4:	01f71513          	slli	a0,a4,0x1f
   139c8:	00f56533          	or	a0,a0,a5
   139cc:	00175793          	srli	a5,a4,0x1
   139d0:	1640006f          	j	13b34 <__adddf3+0x2a0>
   139d4:	fe058693          	addi	a3,a1,-32
   139d8:	02000893          	li	a7,32
   139dc:	00d756b3          	srl	a3,a4,a3
   139e0:	00000813          	li	a6,0
   139e4:	01158863          	beq	a1,a7,139f4 <__adddf3+0x160>
   139e8:	04000813          	li	a6,64
   139ec:	40b80833          	sub	a6,a6,a1
   139f0:	01071833          	sll	a6,a4,a6
   139f4:	00c86833          	or	a6,a6,a2
   139f8:	01003833          	snez	a6,a6
   139fc:	0106e6b3          	or	a3,a3,a6
   13a00:	00000593          	li	a1,0
   13a04:	f85ff06f          	j	13988 <__adddf3+0xf4>
   13a08:	00c766b3          	or	a3,a4,a2
   13a0c:	00d036b3          	snez	a3,a3
   13a10:	ff1ff06f          	j	13a00 <__adddf3+0x16c>
   13a14:	0c080a63          	beqz	a6,13ae8 <__adddf3+0x254>
   13a18:	409886b3          	sub	a3,a7,s1
   13a1c:	02049463          	bnez	s1,13a44 <__adddf3+0x1b0>
   13a20:	00a7e5b3          	or	a1,a5,a0
   13a24:	50058e63          	beqz	a1,13f40 <__adddf3+0x6ac>
   13a28:	fff68593          	addi	a1,a3,-1 # 7fffff <__stack_end+0x7e7fff>
   13a2c:	ee0584e3          	beqz	a1,13914 <__adddf3+0x80>
   13a30:	7ff00813          	li	a6,2047
   13a34:	03069263          	bne	a3,a6,13a58 <__adddf3+0x1c4>
   13a38:	00070793          	mv	a5,a4
   13a3c:	00060513          	mv	a0,a2
   13a40:	ef9ff06f          	j	13938 <__adddf3+0xa4>
   13a44:	7ff00593          	li	a1,2047
   13a48:	feb888e3          	beq	a7,a1,13a38 <__adddf3+0x1a4>
   13a4c:	008005b7          	lui	a1,0x800
   13a50:	00b7e7b3          	or	a5,a5,a1
   13a54:	00068593          	mv	a1,a3
   13a58:	03800693          	li	a3,56
   13a5c:	08b6c063          	blt	a3,a1,13adc <__adddf3+0x248>
   13a60:	01f00693          	li	a3,31
   13a64:	04b6c263          	blt	a3,a1,13aa8 <__adddf3+0x214>
   13a68:	02000813          	li	a6,32
   13a6c:	40b80833          	sub	a6,a6,a1
   13a70:	010796b3          	sll	a3,a5,a6
   13a74:	00b55333          	srl	t1,a0,a1
   13a78:	01051833          	sll	a6,a0,a6
   13a7c:	0066e6b3          	or	a3,a3,t1
   13a80:	01003833          	snez	a6,a6
   13a84:	0106e6b3          	or	a3,a3,a6
   13a88:	00b7d5b3          	srl	a1,a5,a1
   13a8c:	00c68633          	add	a2,a3,a2
   13a90:	00e585b3          	add	a1,a1,a4
   13a94:	00d636b3          	sltu	a3,a2,a3
   13a98:	00060513          	mv	a0,a2
   13a9c:	00d587b3          	add	a5,a1,a3
   13aa0:	00088493          	mv	s1,a7
   13aa4:	ef5ff06f          	j	13998 <__adddf3+0x104>
   13aa8:	fe058693          	addi	a3,a1,-32 # 7fffe0 <__stack_end+0x7e7fe0>
   13aac:	02000313          	li	t1,32
   13ab0:	00d7d6b3          	srl	a3,a5,a3
   13ab4:	00000813          	li	a6,0
   13ab8:	00658863          	beq	a1,t1,13ac8 <__adddf3+0x234>
   13abc:	04000813          	li	a6,64
   13ac0:	40b80833          	sub	a6,a6,a1
   13ac4:	01079833          	sll	a6,a5,a6
   13ac8:	00a86833          	or	a6,a6,a0
   13acc:	01003833          	snez	a6,a6
   13ad0:	0106e6b3          	or	a3,a3,a6
   13ad4:	00000593          	li	a1,0
   13ad8:	fb5ff06f          	j	13a8c <__adddf3+0x1f8>
   13adc:	00a7e6b3          	or	a3,a5,a0
   13ae0:	00d036b3          	snez	a3,a3
   13ae4:	ff1ff06f          	j	13ad4 <__adddf3+0x240>
   13ae8:	00148693          	addi	a3,s1,1
   13aec:	7fe6f593          	andi	a1,a3,2046
   13af0:	08059663          	bnez	a1,13b7c <__adddf3+0x2e8>
   13af4:	00a7e6b3          	or	a3,a5,a0
   13af8:	06049263          	bnez	s1,13b5c <__adddf3+0x2c8>
   13afc:	44068863          	beqz	a3,13f4c <__adddf3+0x6b8>
   13b00:	00c766b3          	or	a3,a4,a2
   13b04:	02068863          	beqz	a3,13b34 <__adddf3+0x2a0>
   13b08:	00c50633          	add	a2,a0,a2
   13b0c:	00a636b3          	sltu	a3,a2,a0
   13b10:	00e78733          	add	a4,a5,a4
   13b14:	00d707b3          	add	a5,a4,a3
   13b18:	00879713          	slli	a4,a5,0x8
   13b1c:	00060513          	mv	a0,a2
   13b20:	00075a63          	bgez	a4,13b34 <__adddf3+0x2a0>
   13b24:	ff800737          	lui	a4,0xff800
   13b28:	fff70713          	addi	a4,a4,-1 # ff7fffff <__stack_end+0xff7e7fff>
   13b2c:	00e7f7b3          	and	a5,a5,a4
   13b30:	00100493          	li	s1,1
   13b34:	00757713          	andi	a4,a0,7
   13b38:	44070863          	beqz	a4,13f88 <__adddf3+0x6f4>
   13b3c:	00f57713          	andi	a4,a0,15
   13b40:	00400693          	li	a3,4
   13b44:	44d70263          	beq	a4,a3,13f88 <__adddf3+0x6f4>
   13b48:	00450713          	addi	a4,a0,4
   13b4c:	00a736b3          	sltu	a3,a4,a0
   13b50:	00d787b3          	add	a5,a5,a3
   13b54:	00070513          	mv	a0,a4
   13b58:	4300006f          	j	13f88 <__adddf3+0x6f4>
   13b5c:	ec068ee3          	beqz	a3,13a38 <__adddf3+0x1a4>
   13b60:	00c76633          	or	a2,a4,a2
   13b64:	dc060ae3          	beqz	a2,13938 <__adddf3+0xa4>
   13b68:	00000913          	li	s2,0
   13b6c:	004007b7          	lui	a5,0x400
   13b70:	00000513          	li	a0,0
   13b74:	7ff00493          	li	s1,2047
   13b78:	4100006f          	j	13f88 <__adddf3+0x6f4>
   13b7c:	7ff00593          	li	a1,2047
   13b80:	3cb68c63          	beq	a3,a1,13f58 <__adddf3+0x6c4>
   13b84:	00c50633          	add	a2,a0,a2
   13b88:	00a63533          	sltu	a0,a2,a0
   13b8c:	00e78733          	add	a4,a5,a4
   13b90:	00a70733          	add	a4,a4,a0
   13b94:	01f71513          	slli	a0,a4,0x1f
   13b98:	00165613          	srli	a2,a2,0x1
   13b9c:	00c56533          	or	a0,a0,a2
   13ba0:	00175793          	srli	a5,a4,0x1
   13ba4:	00068493          	mv	s1,a3
   13ba8:	f8dff06f          	j	13b34 <__adddf3+0x2a0>
   13bac:	0f005c63          	blez	a6,13ca4 <__adddf3+0x410>
   13bb0:	08089e63          	bnez	a7,13c4c <__adddf3+0x3b8>
   13bb4:	00c766b3          	or	a3,a4,a2
   13bb8:	3a068863          	beqz	a3,13f68 <__adddf3+0x6d4>
   13bbc:	fff80693          	addi	a3,a6,-1
   13bc0:	02069063          	bnez	a3,13be0 <__adddf3+0x34c>
   13bc4:	40c50633          	sub	a2,a0,a2
   13bc8:	00c536b3          	sltu	a3,a0,a2
   13bcc:	40e78733          	sub	a4,a5,a4
   13bd0:	00060513          	mv	a0,a2
   13bd4:	40d707b3          	sub	a5,a4,a3
   13bd8:	00100493          	li	s1,1
   13bdc:	0540006f          	j	13c30 <__adddf3+0x39c>
   13be0:	7ff00593          	li	a1,2047
   13be4:	d4b80ae3          	beq	a6,a1,13938 <__adddf3+0xa4>
   13be8:	03800593          	li	a1,56
   13bec:	0ad5c663          	blt	a1,a3,13c98 <__adddf3+0x404>
   13bf0:	01f00593          	li	a1,31
   13bf4:	06d5c863          	blt	a1,a3,13c64 <__adddf3+0x3d0>
   13bf8:	02000813          	li	a6,32
   13bfc:	40d80833          	sub	a6,a6,a3
   13c00:	00d658b3          	srl	a7,a2,a3
   13c04:	010715b3          	sll	a1,a4,a6
   13c08:	01061833          	sll	a6,a2,a6
   13c0c:	0115e5b3          	or	a1,a1,a7
   13c10:	01003833          	snez	a6,a6
   13c14:	0105e633          	or	a2,a1,a6
   13c18:	00d756b3          	srl	a3,a4,a3
   13c1c:	40c50633          	sub	a2,a0,a2
   13c20:	00c53733          	sltu	a4,a0,a2
   13c24:	40d786b3          	sub	a3,a5,a3
   13c28:	00060513          	mv	a0,a2
   13c2c:	40e687b3          	sub	a5,a3,a4
   13c30:	00879713          	slli	a4,a5,0x8
   13c34:	f00750e3          	bgez	a4,13b34 <__adddf3+0x2a0>
   13c38:	00800437          	lui	s0,0x800
   13c3c:	fff40413          	addi	s0,s0,-1 # 7fffff <__stack_end+0x7e7fff>
   13c40:	0087f433          	and	s0,a5,s0
   13c44:	00050993          	mv	s3,a0
   13c48:	2100006f          	j	13e58 <__adddf3+0x5c4>
   13c4c:	7ff00693          	li	a3,2047
   13c50:	eed482e3          	beq	s1,a3,13b34 <__adddf3+0x2a0>
   13c54:	008006b7          	lui	a3,0x800
   13c58:	00d76733          	or	a4,a4,a3
   13c5c:	00080693          	mv	a3,a6
   13c60:	f89ff06f          	j	13be8 <__adddf3+0x354>
   13c64:	fe068593          	addi	a1,a3,-32 # 7fffe0 <__stack_end+0x7e7fe0>
   13c68:	02000893          	li	a7,32
   13c6c:	00b755b3          	srl	a1,a4,a1
   13c70:	00000813          	li	a6,0
   13c74:	01168863          	beq	a3,a7,13c84 <__adddf3+0x3f0>
   13c78:	04000813          	li	a6,64
   13c7c:	40d80833          	sub	a6,a6,a3
   13c80:	01071833          	sll	a6,a4,a6
   13c84:	00c86833          	or	a6,a6,a2
   13c88:	01003833          	snez	a6,a6
   13c8c:	0105e633          	or	a2,a1,a6
   13c90:	00000693          	li	a3,0
   13c94:	f89ff06f          	j	13c1c <__adddf3+0x388>
   13c98:	00c76633          	or	a2,a4,a2
   13c9c:	00c03633          	snez	a2,a2
   13ca0:	ff1ff06f          	j	13c90 <__adddf3+0x3fc>
   13ca4:	0e080863          	beqz	a6,13d94 <__adddf3+0x500>
   13ca8:	40988833          	sub	a6,a7,s1
   13cac:	04049263          	bnez	s1,13cf0 <__adddf3+0x45c>
   13cb0:	00a7e5b3          	or	a1,a5,a0
   13cb4:	2a058e63          	beqz	a1,13f70 <__adddf3+0x6dc>
   13cb8:	fff80593          	addi	a1,a6,-1
   13cbc:	00059e63          	bnez	a1,13cd8 <__adddf3+0x444>
   13cc0:	40a60533          	sub	a0,a2,a0
   13cc4:	40f70733          	sub	a4,a4,a5
   13cc8:	00a63633          	sltu	a2,a2,a0
   13ccc:	40c707b3          	sub	a5,a4,a2
   13cd0:	00068913          	mv	s2,a3
   13cd4:	f05ff06f          	j	13bd8 <__adddf3+0x344>
   13cd8:	7ff00313          	li	t1,2047
   13cdc:	02681463          	bne	a6,t1,13d04 <__adddf3+0x470>
   13ce0:	00070793          	mv	a5,a4
   13ce4:	00060513          	mv	a0,a2
   13ce8:	7ff00493          	li	s1,2047
   13cec:	0d00006f          	j	13dbc <__adddf3+0x528>
   13cf0:	7ff00593          	li	a1,2047
   13cf4:	feb886e3          	beq	a7,a1,13ce0 <__adddf3+0x44c>
   13cf8:	008005b7          	lui	a1,0x800
   13cfc:	00b7e7b3          	or	a5,a5,a1
   13d00:	00080593          	mv	a1,a6
   13d04:	03800813          	li	a6,56
   13d08:	08b84063          	blt	a6,a1,13d88 <__adddf3+0x4f4>
   13d0c:	01f00813          	li	a6,31
   13d10:	04b84263          	blt	a6,a1,13d54 <__adddf3+0x4c0>
   13d14:	02000313          	li	t1,32
   13d18:	40b30333          	sub	t1,t1,a1
   13d1c:	00b55e33          	srl	t3,a0,a1
   13d20:	00679833          	sll	a6,a5,t1
   13d24:	00651333          	sll	t1,a0,t1
   13d28:	01c86833          	or	a6,a6,t3
   13d2c:	00603333          	snez	t1,t1
   13d30:	00686533          	or	a0,a6,t1
   13d34:	00b7d5b3          	srl	a1,a5,a1
   13d38:	40a60533          	sub	a0,a2,a0
   13d3c:	40b705b3          	sub	a1,a4,a1
   13d40:	00a63633          	sltu	a2,a2,a0
   13d44:	40c587b3          	sub	a5,a1,a2
   13d48:	00088493          	mv	s1,a7
   13d4c:	00068913          	mv	s2,a3
   13d50:	ee1ff06f          	j	13c30 <__adddf3+0x39c>
   13d54:	fe058813          	addi	a6,a1,-32 # 7fffe0 <__stack_end+0x7e7fe0>
   13d58:	02000e13          	li	t3,32
   13d5c:	0107d833          	srl	a6,a5,a6
   13d60:	00000313          	li	t1,0
   13d64:	01c58863          	beq	a1,t3,13d74 <__adddf3+0x4e0>
   13d68:	04000313          	li	t1,64
   13d6c:	40b30333          	sub	t1,t1,a1
   13d70:	00679333          	sll	t1,a5,t1
   13d74:	00a36333          	or	t1,t1,a0
   13d78:	00603333          	snez	t1,t1
   13d7c:	00686533          	or	a0,a6,t1
   13d80:	00000593          	li	a1,0
   13d84:	fb5ff06f          	j	13d38 <__adddf3+0x4a4>
   13d88:	00a7e533          	or	a0,a5,a0
   13d8c:	00a03533          	snez	a0,a0
   13d90:	ff1ff06f          	j	13d80 <__adddf3+0x4ec>
   13d94:	00148593          	addi	a1,s1,1
   13d98:	7fe5f593          	andi	a1,a1,2046
   13d9c:	08059663          	bnez	a1,13e28 <__adddf3+0x594>
   13da0:	00a7e833          	or	a6,a5,a0
   13da4:	00c765b3          	or	a1,a4,a2
   13da8:	06049063          	bnez	s1,13e08 <__adddf3+0x574>
   13dac:	00081c63          	bnez	a6,13dc4 <__adddf3+0x530>
   13db0:	10058e63          	beqz	a1,13ecc <__adddf3+0x638>
   13db4:	00070793          	mv	a5,a4
   13db8:	00060513          	mv	a0,a2
   13dbc:	00068913          	mv	s2,a3
   13dc0:	d75ff06f          	j	13b34 <__adddf3+0x2a0>
   13dc4:	d60588e3          	beqz	a1,13b34 <__adddf3+0x2a0>
   13dc8:	40c50833          	sub	a6,a0,a2
   13dcc:	010538b3          	sltu	a7,a0,a6
   13dd0:	40e785b3          	sub	a1,a5,a4
   13dd4:	411585b3          	sub	a1,a1,a7
   13dd8:	00859893          	slli	a7,a1,0x8
   13ddc:	0008dc63          	bgez	a7,13df4 <__adddf3+0x560>
   13de0:	40a60533          	sub	a0,a2,a0
   13de4:	40f70733          	sub	a4,a4,a5
   13de8:	00a63633          	sltu	a2,a2,a0
   13dec:	40c707b3          	sub	a5,a4,a2
   13df0:	fcdff06f          	j	13dbc <__adddf3+0x528>
   13df4:	00b86533          	or	a0,a6,a1
   13df8:	18050463          	beqz	a0,13f80 <__adddf3+0x6ec>
   13dfc:	00058793          	mv	a5,a1
   13e00:	00080513          	mv	a0,a6
   13e04:	d31ff06f          	j	13b34 <__adddf3+0x2a0>
   13e08:	00081c63          	bnez	a6,13e20 <__adddf3+0x58c>
   13e0c:	d4058ee3          	beqz	a1,13b68 <__adddf3+0x2d4>
   13e10:	00070793          	mv	a5,a4
   13e14:	00060513          	mv	a0,a2
   13e18:	00068913          	mv	s2,a3
   13e1c:	b1dff06f          	j	13938 <__adddf3+0xa4>
   13e20:	b0058ce3          	beqz	a1,13938 <__adddf3+0xa4>
   13e24:	d45ff06f          	j	13b68 <__adddf3+0x2d4>
   13e28:	40c505b3          	sub	a1,a0,a2
   13e2c:	00b53833          	sltu	a6,a0,a1
   13e30:	40e78433          	sub	s0,a5,a4
   13e34:	41040433          	sub	s0,s0,a6
   13e38:	00841813          	slli	a6,s0,0x8
   13e3c:	00058993          	mv	s3,a1
   13e40:	08085063          	bgez	a6,13ec0 <__adddf3+0x62c>
   13e44:	40a609b3          	sub	s3,a2,a0
   13e48:	40f70433          	sub	s0,a4,a5
   13e4c:	01363633          	sltu	a2,a2,s3
   13e50:	40c40433          	sub	s0,s0,a2
   13e54:	00068913          	mv	s2,a3
   13e58:	06040e63          	beqz	s0,13ed4 <__adddf3+0x640>
   13e5c:	00040513          	mv	a0,s0
   13e60:	3f0010ef          	jal	15250 <__clzsi2>
   13e64:	ff850693          	addi	a3,a0,-8
   13e68:	02000793          	li	a5,32
   13e6c:	40d787b3          	sub	a5,a5,a3
   13e70:	00d41433          	sll	s0,s0,a3
   13e74:	00f9d7b3          	srl	a5,s3,a5
   13e78:	0087e7b3          	or	a5,a5,s0
   13e7c:	00d99433          	sll	s0,s3,a3
   13e80:	0a96c463          	blt	a3,s1,13f28 <__adddf3+0x694>
   13e84:	409686b3          	sub	a3,a3,s1
   13e88:	00168613          	addi	a2,a3,1
   13e8c:	01f00713          	li	a4,31
   13e90:	06c74263          	blt	a4,a2,13ef4 <__adddf3+0x660>
   13e94:	02000713          	li	a4,32
   13e98:	40c70733          	sub	a4,a4,a2
   13e9c:	00e79533          	sll	a0,a5,a4
   13ea0:	00c456b3          	srl	a3,s0,a2
   13ea4:	00e41733          	sll	a4,s0,a4
   13ea8:	00d56533          	or	a0,a0,a3
   13eac:	00e03733          	snez	a4,a4
   13eb0:	00e56533          	or	a0,a0,a4
   13eb4:	00c7d7b3          	srl	a5,a5,a2
   13eb8:	00000493          	li	s1,0
   13ebc:	c79ff06f          	j	13b34 <__adddf3+0x2a0>
   13ec0:	0085e5b3          	or	a1,a1,s0
   13ec4:	f8059ae3          	bnez	a1,13e58 <__adddf3+0x5c4>
   13ec8:	00000493          	li	s1,0
   13ecc:	00000913          	li	s2,0
   13ed0:	08c0006f          	j	13f5c <__adddf3+0x6c8>
   13ed4:	00098513          	mv	a0,s3
   13ed8:	378010ef          	jal	15250 <__clzsi2>
   13edc:	01850693          	addi	a3,a0,24
   13ee0:	01f00793          	li	a5,31
   13ee4:	f8d7d2e3          	bge	a5,a3,13e68 <__adddf3+0x5d4>
   13ee8:	ff850793          	addi	a5,a0,-8
   13eec:	00f997b3          	sll	a5,s3,a5
   13ef0:	f91ff06f          	j	13e80 <__adddf3+0x5ec>
   13ef4:	fe168693          	addi	a3,a3,-31
   13ef8:	00d7d533          	srl	a0,a5,a3
   13efc:	02000693          	li	a3,32
   13f00:	00000713          	li	a4,0
   13f04:	00d60863          	beq	a2,a3,13f14 <__adddf3+0x680>
   13f08:	04000713          	li	a4,64
   13f0c:	40c70733          	sub	a4,a4,a2
   13f10:	00e79733          	sll	a4,a5,a4
   13f14:	00e46733          	or	a4,s0,a4
   13f18:	00e03733          	snez	a4,a4
   13f1c:	00e56533          	or	a0,a0,a4
   13f20:	00000793          	li	a5,0
   13f24:	f95ff06f          	j	13eb8 <__adddf3+0x624>
   13f28:	ff800737          	lui	a4,0xff800
   13f2c:	fff70713          	addi	a4,a4,-1 # ff7fffff <__stack_end+0xff7e7fff>
   13f30:	40d484b3          	sub	s1,s1,a3
   13f34:	00e7f7b3          	and	a5,a5,a4
   13f38:	00040513          	mv	a0,s0
   13f3c:	bf9ff06f          	j	13b34 <__adddf3+0x2a0>
   13f40:	00070793          	mv	a5,a4
   13f44:	00060513          	mv	a0,a2
   13f48:	c5dff06f          	j	13ba4 <__adddf3+0x310>
   13f4c:	00070793          	mv	a5,a4
   13f50:	00060513          	mv	a0,a2
   13f54:	be1ff06f          	j	13b34 <__adddf3+0x2a0>
   13f58:	7ff00493          	li	s1,2047
   13f5c:	00000793          	li	a5,0
   13f60:	00000513          	li	a0,0
   13f64:	0240006f          	j	13f88 <__adddf3+0x6f4>
   13f68:	00080493          	mv	s1,a6
   13f6c:	bc9ff06f          	j	13b34 <__adddf3+0x2a0>
   13f70:	00070793          	mv	a5,a4
   13f74:	00060513          	mv	a0,a2
   13f78:	00080493          	mv	s1,a6
   13f7c:	e41ff06f          	j	13dbc <__adddf3+0x528>
   13f80:	00000793          	li	a5,0
   13f84:	00000913          	li	s2,0
   13f88:	00879713          	slli	a4,a5,0x8
   13f8c:	00075e63          	bgez	a4,13fa8 <__adddf3+0x714>
   13f90:	00148493          	addi	s1,s1,1
   13f94:	7ff00713          	li	a4,2047
   13f98:	08e48263          	beq	s1,a4,1401c <__adddf3+0x788>
   13f9c:	ff800737          	lui	a4,0xff800
   13fa0:	fff70713          	addi	a4,a4,-1 # ff7fffff <__stack_end+0xff7e7fff>
   13fa4:	00e7f7b3          	and	a5,a5,a4
   13fa8:	01d79693          	slli	a3,a5,0x1d
   13fac:	00355513          	srli	a0,a0,0x3
   13fb0:	7ff00713          	li	a4,2047
   13fb4:	00a6e6b3          	or	a3,a3,a0
   13fb8:	0037d793          	srli	a5,a5,0x3
   13fbc:	00e49e63          	bne	s1,a4,13fd8 <__adddf3+0x744>
   13fc0:	00f6e6b3          	or	a3,a3,a5
   13fc4:	00000793          	li	a5,0
   13fc8:	00068863          	beqz	a3,13fd8 <__adddf3+0x744>
   13fcc:	000807b7          	lui	a5,0x80
   13fd0:	00000693          	li	a3,0
   13fd4:	00000913          	li	s2,0
   13fd8:	01449713          	slli	a4,s1,0x14
   13fdc:	7ff00637          	lui	a2,0x7ff00
   13fe0:	00c79793          	slli	a5,a5,0xc
   13fe4:	00c77733          	and	a4,a4,a2
   13fe8:	01c12083          	lw	ra,28(sp)
   13fec:	01812403          	lw	s0,24(sp)
   13ff0:	00c7d793          	srli	a5,a5,0xc
   13ff4:	00f767b3          	or	a5,a4,a5
   13ff8:	01f91713          	slli	a4,s2,0x1f
   13ffc:	00e7e633          	or	a2,a5,a4
   14000:	01412483          	lw	s1,20(sp)
   14004:	01012903          	lw	s2,16(sp)
   14008:	00c12983          	lw	s3,12(sp)
   1400c:	00068513          	mv	a0,a3
   14010:	00060593          	mv	a1,a2
   14014:	02010113          	addi	sp,sp,32
   14018:	00008067          	ret
   1401c:	00000793          	li	a5,0
   14020:	00000513          	li	a0,0
   14024:	f85ff06f          	j	13fa8 <__adddf3+0x714>

00014028 <__divdf3>:
   14028:	fb010113          	addi	sp,sp,-80
   1402c:	05212023          	sw	s2,64(sp)
   14030:	0145d913          	srli	s2,a1,0x14
   14034:	04912223          	sw	s1,68(sp)
   14038:	03312e23          	sw	s3,60(sp)
   1403c:	03412c23          	sw	s4,56(sp)
   14040:	03512a23          	sw	s5,52(sp)
   14044:	03712623          	sw	s7,44(sp)
   14048:	00c59493          	slli	s1,a1,0xc
   1404c:	04112623          	sw	ra,76(sp)
   14050:	04812423          	sw	s0,72(sp)
   14054:	03612823          	sw	s6,48(sp)
   14058:	03812423          	sw	s8,40(sp)
   1405c:	03912223          	sw	s9,36(sp)
   14060:	03a12023          	sw	s10,32(sp)
   14064:	01b12e23          	sw	s11,28(sp)
   14068:	7ff97913          	andi	s2,s2,2047
   1406c:	00050993          	mv	s3,a0
   14070:	00060b93          	mv	s7,a2
   14074:	00068a13          	mv	s4,a3
   14078:	00c4d493          	srli	s1,s1,0xc
   1407c:	01f5da93          	srli	s5,a1,0x1f
   14080:	08090e63          	beqz	s2,1411c <__divdf3+0xf4>
   14084:	7ff00793          	li	a5,2047
   14088:	0ef90e63          	beq	s2,a5,14184 <__divdf3+0x15c>
   1408c:	01d55d13          	srli	s10,a0,0x1d
   14090:	00349493          	slli	s1,s1,0x3
   14094:	009d6d33          	or	s10,s10,s1
   14098:	008007b7          	lui	a5,0x800
   1409c:	00fd6d33          	or	s10,s10,a5
   140a0:	00351413          	slli	s0,a0,0x3
   140a4:	c0190913          	addi	s2,s2,-1023
   140a8:	00000b13          	li	s6,0
   140ac:	014a5713          	srli	a4,s4,0x14
   140b0:	00ca1993          	slli	s3,s4,0xc
   140b4:	7ff77713          	andi	a4,a4,2047
   140b8:	00c9d993          	srli	s3,s3,0xc
   140bc:	01fa5a13          	srli	s4,s4,0x1f
   140c0:	10070063          	beqz	a4,141c0 <__divdf3+0x198>
   140c4:	7ff00793          	li	a5,2047
   140c8:	16f70463          	beq	a4,a5,14230 <__divdf3+0x208>
   140cc:	00399993          	slli	s3,s3,0x3
   140d0:	01dbd793          	srli	a5,s7,0x1d
   140d4:	0137e7b3          	or	a5,a5,s3
   140d8:	008009b7          	lui	s3,0x800
   140dc:	0137e9b3          	or	s3,a5,s3
   140e0:	003b9693          	slli	a3,s7,0x3
   140e4:	c0170713          	addi	a4,a4,-1023
   140e8:	00000793          	li	a5,0
   140ec:	40e90933          	sub	s2,s2,a4
   140f0:	002b1713          	slli	a4,s6,0x2
   140f4:	00f76733          	or	a4,a4,a5
   140f8:	fff70713          	addi	a4,a4,-1
   140fc:	00e00613          	li	a2,14
   14100:	014ac4b3          	xor	s1,s5,s4
   14104:	16e66263          	bltu	a2,a4,14268 <__divdf3+0x240>
   14108:	00271713          	slli	a4,a4,0x2
   1410c:	fe918613          	addi	a2,gp,-23 # 16420 <errpat+0x22c>
   14110:	00c70733          	add	a4,a4,a2
   14114:	00072703          	lw	a4,0(a4)
   14118:	00070067          	jr	a4
   1411c:	00a4ed33          	or	s10,s1,a0
   14120:	060d0e63          	beqz	s10,1419c <__divdf3+0x174>
   14124:	02048e63          	beqz	s1,14160 <__divdf3+0x138>
   14128:	00048513          	mv	a0,s1
   1412c:	124010ef          	jal	15250 <__clzsi2>
   14130:	ff550793          	addi	a5,a0,-11
   14134:	01d00d13          	li	s10,29
   14138:	ff850713          	addi	a4,a0,-8
   1413c:	40fd0d33          	sub	s10,s10,a5
   14140:	00e494b3          	sll	s1,s1,a4
   14144:	01a9dd33          	srl	s10,s3,s10
   14148:	009d6d33          	or	s10,s10,s1
   1414c:	00e994b3          	sll	s1,s3,a4
   14150:	c0d00913          	li	s2,-1011
   14154:	40a90933          	sub	s2,s2,a0
   14158:	00048413          	mv	s0,s1
   1415c:	f4dff06f          	j	140a8 <__divdf3+0x80>
   14160:	0f0010ef          	jal	15250 <__clzsi2>
   14164:	00050d13          	mv	s10,a0
   14168:	015d0793          	addi	a5,s10,21
   1416c:	01c00713          	li	a4,28
   14170:	02050513          	addi	a0,a0,32
   14174:	fcf750e3          	bge	a4,a5,14134 <__divdf3+0x10c>
   14178:	ff8d0d13          	addi	s10,s10,-8
   1417c:	01a99d33          	sll	s10,s3,s10
   14180:	fd1ff06f          	j	14150 <__divdf3+0x128>
   14184:	00a4ed33          	or	s10,s1,a0
   14188:	020d1263          	bnez	s10,141ac <__divdf3+0x184>
   1418c:	00000413          	li	s0,0
   14190:	7ff00913          	li	s2,2047
   14194:	00200b13          	li	s6,2
   14198:	f15ff06f          	j	140ac <__divdf3+0x84>
   1419c:	00000413          	li	s0,0
   141a0:	00000913          	li	s2,0
   141a4:	00100b13          	li	s6,1
   141a8:	f05ff06f          	j	140ac <__divdf3+0x84>
   141ac:	00050413          	mv	s0,a0
   141b0:	00048d13          	mv	s10,s1
   141b4:	7ff00913          	li	s2,2047
   141b8:	00300b13          	li	s6,3
   141bc:	ef1ff06f          	j	140ac <__divdf3+0x84>
   141c0:	0179e6b3          	or	a3,s3,s7
   141c4:	08068263          	beqz	a3,14248 <__divdf3+0x220>
   141c8:	04098063          	beqz	s3,14208 <__divdf3+0x1e0>
   141cc:	00098513          	mv	a0,s3
   141d0:	080010ef          	jal	15250 <__clzsi2>
   141d4:	ff550713          	addi	a4,a0,-11
   141d8:	01d00793          	li	a5,29
   141dc:	ff850693          	addi	a3,a0,-8
   141e0:	40e787b3          	sub	a5,a5,a4
   141e4:	00d999b3          	sll	s3,s3,a3
   141e8:	00fbd7b3          	srl	a5,s7,a5
   141ec:	0137e7b3          	or	a5,a5,s3
   141f0:	00db99b3          	sll	s3,s7,a3
   141f4:	c0d00713          	li	a4,-1011
   141f8:	00098693          	mv	a3,s3
   141fc:	40a70733          	sub	a4,a4,a0
   14200:	00078993          	mv	s3,a5
   14204:	ee5ff06f          	j	140e8 <__divdf3+0xc0>
   14208:	000b8513          	mv	a0,s7
   1420c:	044010ef          	jal	15250 <__clzsi2>
   14210:	00050793          	mv	a5,a0
   14214:	01578713          	addi	a4,a5,21 # 800015 <__stack_end+0x7e8015>
   14218:	01c00693          	li	a3,28
   1421c:	02050513          	addi	a0,a0,32
   14220:	fae6dce3          	bge	a3,a4,141d8 <__divdf3+0x1b0>
   14224:	ff878793          	addi	a5,a5,-8
   14228:	00fb97b3          	sll	a5,s7,a5
   1422c:	fc9ff06f          	j	141f4 <__divdf3+0x1cc>
   14230:	0179e6b3          	or	a3,s3,s7
   14234:	02069263          	bnez	a3,14258 <__divdf3+0x230>
   14238:	00000993          	li	s3,0
   1423c:	7ff00713          	li	a4,2047
   14240:	00200793          	li	a5,2
   14244:	ea9ff06f          	j	140ec <__divdf3+0xc4>
   14248:	00000993          	li	s3,0
   1424c:	00000713          	li	a4,0
   14250:	00100793          	li	a5,1
   14254:	e99ff06f          	j	140ec <__divdf3+0xc4>
   14258:	000b8693          	mv	a3,s7
   1425c:	7ff00713          	li	a4,2047
   14260:	00300793          	li	a5,3
   14264:	e89ff06f          	j	140ec <__divdf3+0xc4>
   14268:	01a9e663          	bltu	s3,s10,14274 <__divdf3+0x24c>
   1426c:	453d1663          	bne	s10,s3,146b8 <__divdf3+0x690>
   14270:	44d46463          	bltu	s0,a3,146b8 <__divdf3+0x690>
   14274:	01fd1713          	slli	a4,s10,0x1f
   14278:	00145793          	srli	a5,s0,0x1
   1427c:	01f41d93          	slli	s11,s0,0x1f
   14280:	001d5d13          	srli	s10,s10,0x1
   14284:	00f76433          	or	s0,a4,a5
   14288:	0186dc13          	srli	s8,a3,0x18
   1428c:	00899b13          	slli	s6,s3,0x8
   14290:	016c6c33          	or	s8,s8,s6
   14294:	010b5b13          	srli	s6,s6,0x10
   14298:	000b0593          	mv	a1,s6
   1429c:	010c1b93          	slli	s7,s8,0x10
   142a0:	000d0513          	mv	a0,s10
   142a4:	00869c93          	slli	s9,a3,0x8
   142a8:	010bdb93          	srli	s7,s7,0x10
   142ac:	6f9000ef          	jal	151a4 <__hidden___udivsi3>
   142b0:	00050593          	mv	a1,a0
   142b4:	00050a93          	mv	s5,a0
   142b8:	000b8513          	mv	a0,s7
   142bc:	6bd000ef          	jal	15178 <__mulsi3>
   142c0:	00050993          	mv	s3,a0
   142c4:	000b0593          	mv	a1,s6
   142c8:	000d0513          	mv	a0,s10
   142cc:	721000ef          	jal	151ec <__umodsi3>
   142d0:	01051513          	slli	a0,a0,0x10
   142d4:	01045793          	srli	a5,s0,0x10
   142d8:	00a7e7b3          	or	a5,a5,a0
   142dc:	000a8a13          	mv	s4,s5
   142e0:	0137fe63          	bgeu	a5,s3,142fc <__divdf3+0x2d4>
   142e4:	00fc07b3          	add	a5,s8,a5
   142e8:	fffa8a13          	addi	s4,s5,-1
   142ec:	0187e863          	bltu	a5,s8,142fc <__divdf3+0x2d4>
   142f0:	0137f663          	bgeu	a5,s3,142fc <__divdf3+0x2d4>
   142f4:	ffea8a13          	addi	s4,s5,-2
   142f8:	018787b3          	add	a5,a5,s8
   142fc:	413789b3          	sub	s3,a5,s3
   14300:	000b0593          	mv	a1,s6
   14304:	00098513          	mv	a0,s3
   14308:	69d000ef          	jal	151a4 <__hidden___udivsi3>
   1430c:	00050593          	mv	a1,a0
   14310:	00050d13          	mv	s10,a0
   14314:	000b8513          	mv	a0,s7
   14318:	661000ef          	jal	15178 <__mulsi3>
   1431c:	00050a93          	mv	s5,a0
   14320:	000b0593          	mv	a1,s6
   14324:	00098513          	mv	a0,s3
   14328:	6c5000ef          	jal	151ec <__umodsi3>
   1432c:	01041793          	slli	a5,s0,0x10
   14330:	01051513          	slli	a0,a0,0x10
   14334:	0107d793          	srli	a5,a5,0x10
   14338:	00a7e7b3          	or	a5,a5,a0
   1433c:	000d0713          	mv	a4,s10
   14340:	0157fe63          	bgeu	a5,s5,1435c <__divdf3+0x334>
   14344:	00fc07b3          	add	a5,s8,a5
   14348:	fffd0713          	addi	a4,s10,-1
   1434c:	0187e863          	bltu	a5,s8,1435c <__divdf3+0x334>
   14350:	0157f663          	bgeu	a5,s5,1435c <__divdf3+0x334>
   14354:	ffed0713          	addi	a4,s10,-2
   14358:	018787b3          	add	a5,a5,s8
   1435c:	010a1813          	slli	a6,s4,0x10
   14360:	00010eb7          	lui	t4,0x10
   14364:	00e86833          	or	a6,a6,a4
   14368:	fffe8a13          	addi	s4,t4,-1 # ffff <uart_tx+0xefff>
   1436c:	014878b3          	and	a7,a6,s4
   14370:	010cd693          	srli	a3,s9,0x10
   14374:	014cfa33          	and	s4,s9,s4
   14378:	415787b3          	sub	a5,a5,s5
   1437c:	01085713          	srli	a4,a6,0x10
   14380:	00d12623          	sw	a3,12(sp)
   14384:	00088513          	mv	a0,a7
   14388:	000a0593          	mv	a1,s4
   1438c:	5ed000ef          	jal	15178 <__mulsi3>
   14390:	00050313          	mv	t1,a0
   14394:	010cd593          	srli	a1,s9,0x10
   14398:	00088513          	mv	a0,a7
   1439c:	5dd000ef          	jal	15178 <__mulsi3>
   143a0:	00050893          	mv	a7,a0
   143a4:	000a0593          	mv	a1,s4
   143a8:	00070513          	mv	a0,a4
   143ac:	5cd000ef          	jal	15178 <__mulsi3>
   143b0:	00050e13          	mv	t3,a0
   143b4:	010cd593          	srli	a1,s9,0x10
   143b8:	00070513          	mv	a0,a4
   143bc:	5bd000ef          	jal	15178 <__mulsi3>
   143c0:	01035713          	srli	a4,t1,0x10
   143c4:	01c888b3          	add	a7,a7,t3
   143c8:	01170733          	add	a4,a4,a7
   143cc:	00050613          	mv	a2,a0
   143d0:	01c77463          	bgeu	a4,t3,143d8 <__divdf3+0x3b0>
   143d4:	01d50633          	add	a2,a0,t4
   143d8:	01075693          	srli	a3,a4,0x10
   143dc:	00c686b3          	add	a3,a3,a2
   143e0:	00010637          	lui	a2,0x10
   143e4:	fff60613          	addi	a2,a2,-1 # ffff <uart_tx+0xefff>
   143e8:	00c77733          	and	a4,a4,a2
   143ec:	01071713          	slli	a4,a4,0x10
   143f0:	00c37333          	and	t1,t1,a2
   143f4:	00670733          	add	a4,a4,t1
   143f8:	00d7e863          	bltu	a5,a3,14408 <__divdf3+0x3e0>
   143fc:	00080993          	mv	s3,a6
   14400:	04d79863          	bne	a5,a3,14450 <__divdf3+0x428>
   14404:	04edf663          	bgeu	s11,a4,14450 <__divdf3+0x428>
   14408:	019d8633          	add	a2,s11,s9
   1440c:	01b635b3          	sltu	a1,a2,s11
   14410:	01858533          	add	a0,a1,s8
   14414:	00a787b3          	add	a5,a5,a0
   14418:	fff80993          	addi	s3,a6,-1
   1441c:	00060d93          	mv	s11,a2
   14420:	00fc6663          	bltu	s8,a5,1442c <__divdf3+0x404>
   14424:	02fc1663          	bne	s8,a5,14450 <__divdf3+0x428>
   14428:	02059463          	bnez	a1,14450 <__divdf3+0x428>
   1442c:	00d7e663          	bltu	a5,a3,14438 <__divdf3+0x410>
   14430:	02f69063          	bne	a3,a5,14450 <__divdf3+0x428>
   14434:	00e67e63          	bgeu	a2,a4,14450 <__divdf3+0x428>
   14438:	00cc8633          	add	a2,s9,a2
   1443c:	00060d93          	mv	s11,a2
   14440:	01963633          	sltu	a2,a2,s9
   14444:	01860633          	add	a2,a2,s8
   14448:	ffe80993          	addi	s3,a6,-2
   1444c:	00c787b3          	add	a5,a5,a2
   14450:	40ed8d33          	sub	s10,s11,a4
   14454:	40d787b3          	sub	a5,a5,a3
   14458:	01adbdb3          	sltu	s11,s11,s10
   1445c:	41b78433          	sub	s0,a5,s11
   14460:	fff00693          	li	a3,-1
   14464:	188c0e63          	beq	s8,s0,14600 <__divdf3+0x5d8>
   14468:	000b0593          	mv	a1,s6
   1446c:	00040513          	mv	a0,s0
   14470:	535000ef          	jal	151a4 <__hidden___udivsi3>
   14474:	00050593          	mv	a1,a0
   14478:	00050a93          	mv	s5,a0
   1447c:	000b8513          	mv	a0,s7
   14480:	4f9000ef          	jal	15178 <__mulsi3>
   14484:	00050d93          	mv	s11,a0
   14488:	000b0593          	mv	a1,s6
   1448c:	00040513          	mv	a0,s0
   14490:	55d000ef          	jal	151ec <__umodsi3>
   14494:	01051513          	slli	a0,a0,0x10
   14498:	010d5693          	srli	a3,s10,0x10
   1449c:	00a6e6b3          	or	a3,a3,a0
   144a0:	000a8413          	mv	s0,s5
   144a4:	01b6fe63          	bgeu	a3,s11,144c0 <__divdf3+0x498>
   144a8:	00dc06b3          	add	a3,s8,a3
   144ac:	fffa8413          	addi	s0,s5,-1
   144b0:	0186e863          	bltu	a3,s8,144c0 <__divdf3+0x498>
   144b4:	01b6f663          	bgeu	a3,s11,144c0 <__divdf3+0x498>
   144b8:	ffea8413          	addi	s0,s5,-2
   144bc:	018686b3          	add	a3,a3,s8
   144c0:	41b68ab3          	sub	s5,a3,s11
   144c4:	000b0593          	mv	a1,s6
   144c8:	000a8513          	mv	a0,s5
   144cc:	4d9000ef          	jal	151a4 <__hidden___udivsi3>
   144d0:	00050593          	mv	a1,a0
   144d4:	00050d93          	mv	s11,a0
   144d8:	000b8513          	mv	a0,s7
   144dc:	49d000ef          	jal	15178 <__mulsi3>
   144e0:	00050b93          	mv	s7,a0
   144e4:	000b0593          	mv	a1,s6
   144e8:	000a8513          	mv	a0,s5
   144ec:	501000ef          	jal	151ec <__umodsi3>
   144f0:	010d1793          	slli	a5,s10,0x10
   144f4:	01051513          	slli	a0,a0,0x10
   144f8:	0107d793          	srli	a5,a5,0x10
   144fc:	00a7e7b3          	or	a5,a5,a0
   14500:	000d8713          	mv	a4,s11
   14504:	0177fe63          	bgeu	a5,s7,14520 <__divdf3+0x4f8>
   14508:	00fc07b3          	add	a5,s8,a5
   1450c:	fffd8713          	addi	a4,s11,-1
   14510:	0187e863          	bltu	a5,s8,14520 <__divdf3+0x4f8>
   14514:	0177f663          	bgeu	a5,s7,14520 <__divdf3+0x4f8>
   14518:	ffed8713          	addi	a4,s11,-2
   1451c:	018787b3          	add	a5,a5,s8
   14520:	01041813          	slli	a6,s0,0x10
   14524:	00e86833          	or	a6,a6,a4
   14528:	01081893          	slli	a7,a6,0x10
   1452c:	0108d893          	srli	a7,a7,0x10
   14530:	417787b3          	sub	a5,a5,s7
   14534:	01085713          	srli	a4,a6,0x10
   14538:	00088513          	mv	a0,a7
   1453c:	000a0593          	mv	a1,s4
   14540:	439000ef          	jal	15178 <__mulsi3>
   14544:	00050313          	mv	t1,a0
   14548:	010cd593          	srli	a1,s9,0x10
   1454c:	00088513          	mv	a0,a7
   14550:	429000ef          	jal	15178 <__mulsi3>
   14554:	00050893          	mv	a7,a0
   14558:	000a0593          	mv	a1,s4
   1455c:	00070513          	mv	a0,a4
   14560:	419000ef          	jal	15178 <__mulsi3>
   14564:	00050e13          	mv	t3,a0
   14568:	010cd593          	srli	a1,s9,0x10
   1456c:	00070513          	mv	a0,a4
   14570:	409000ef          	jal	15178 <__mulsi3>
   14574:	01035713          	srli	a4,t1,0x10
   14578:	01c888b3          	add	a7,a7,t3
   1457c:	01170733          	add	a4,a4,a7
   14580:	00050693          	mv	a3,a0
   14584:	01c77663          	bgeu	a4,t3,14590 <__divdf3+0x568>
   14588:	00010637          	lui	a2,0x10
   1458c:	00c506b3          	add	a3,a0,a2
   14590:	01075613          	srli	a2,a4,0x10
   14594:	00d60633          	add	a2,a2,a3
   14598:	000106b7          	lui	a3,0x10
   1459c:	fff68693          	addi	a3,a3,-1 # ffff <uart_tx+0xefff>
   145a0:	00d77733          	and	a4,a4,a3
   145a4:	01071713          	slli	a4,a4,0x10
   145a8:	00d37333          	and	t1,t1,a3
   145ac:	00670733          	add	a4,a4,t1
   145b0:	00c7e863          	bltu	a5,a2,145c0 <__divdf3+0x598>
   145b4:	24c79463          	bne	a5,a2,147fc <__divdf3+0x7d4>
   145b8:	00080693          	mv	a3,a6
   145bc:	04070263          	beqz	a4,14600 <__divdf3+0x5d8>
   145c0:	00fc07b3          	add	a5,s8,a5
   145c4:	fff80693          	addi	a3,a6,-1
   145c8:	00078593          	mv	a1,a5
   145cc:	0387e463          	bltu	a5,s8,145f4 <__divdf3+0x5cc>
   145d0:	00c7e663          	bltu	a5,a2,145dc <__divdf3+0x5b4>
   145d4:	22c79263          	bne	a5,a2,147f8 <__divdf3+0x7d0>
   145d8:	02ecf063          	bgeu	s9,a4,145f8 <__divdf3+0x5d0>
   145dc:	001c9513          	slli	a0,s9,0x1
   145e0:	019535b3          	sltu	a1,a0,s9
   145e4:	018585b3          	add	a1,a1,s8
   145e8:	ffe80693          	addi	a3,a6,-2
   145ec:	00b785b3          	add	a1,a5,a1
   145f0:	00050c93          	mv	s9,a0
   145f4:	00c59463          	bne	a1,a2,145fc <__divdf3+0x5d4>
   145f8:	01970463          	beq	a4,s9,14600 <__divdf3+0x5d8>
   145fc:	0016e693          	ori	a3,a3,1
   14600:	3ff90713          	addi	a4,s2,1023
   14604:	10e05a63          	blez	a4,14718 <__divdf3+0x6f0>
   14608:	0076f793          	andi	a5,a3,7
   1460c:	02078063          	beqz	a5,1462c <__divdf3+0x604>
   14610:	00f6f793          	andi	a5,a3,15
   14614:	00400613          	li	a2,4
   14618:	00c78a63          	beq	a5,a2,1462c <__divdf3+0x604>
   1461c:	00468793          	addi	a5,a3,4
   14620:	00d7b633          	sltu	a2,a5,a3
   14624:	00c989b3          	add	s3,s3,a2
   14628:	00078693          	mv	a3,a5
   1462c:	00799793          	slli	a5,s3,0x7
   14630:	0007da63          	bgez	a5,14644 <__divdf3+0x61c>
   14634:	ff0007b7          	lui	a5,0xff000
   14638:	fff78793          	addi	a5,a5,-1 # feffffff <__stack_end+0xfefe7fff>
   1463c:	00f9f9b3          	and	s3,s3,a5
   14640:	40090713          	addi	a4,s2,1024
   14644:	7fe00793          	li	a5,2046
   14648:	0ae7c263          	blt	a5,a4,146ec <__divdf3+0x6c4>
   1464c:	0036d693          	srli	a3,a3,0x3
   14650:	01d99793          	slli	a5,s3,0x1d
   14654:	00d7e6b3          	or	a3,a5,a3
   14658:	0039d593          	srli	a1,s3,0x3
   1465c:	00c59593          	slli	a1,a1,0xc
   14660:	04c12083          	lw	ra,76(sp)
   14664:	04812403          	lw	s0,72(sp)
   14668:	00c5d593          	srli	a1,a1,0xc
   1466c:	01471713          	slli	a4,a4,0x14
   14670:	00b76733          	or	a4,a4,a1
   14674:	01f49493          	slli	s1,s1,0x1f
   14678:	009767b3          	or	a5,a4,s1
   1467c:	04012903          	lw	s2,64(sp)
   14680:	04412483          	lw	s1,68(sp)
   14684:	03c12983          	lw	s3,60(sp)
   14688:	03812a03          	lw	s4,56(sp)
   1468c:	03412a83          	lw	s5,52(sp)
   14690:	03012b03          	lw	s6,48(sp)
   14694:	02c12b83          	lw	s7,44(sp)
   14698:	02812c03          	lw	s8,40(sp)
   1469c:	02412c83          	lw	s9,36(sp)
   146a0:	02012d03          	lw	s10,32(sp)
   146a4:	01c12d83          	lw	s11,28(sp)
   146a8:	00068513          	mv	a0,a3
   146ac:	00078593          	mv	a1,a5
   146b0:	05010113          	addi	sp,sp,80
   146b4:	00008067          	ret
   146b8:	fff90913          	addi	s2,s2,-1
   146bc:	00000d93          	li	s11,0
   146c0:	bc9ff06f          	j	14288 <__divdf3+0x260>
   146c4:	000a8493          	mv	s1,s5
   146c8:	000d0993          	mv	s3,s10
   146cc:	00040693          	mv	a3,s0
   146d0:	000b0793          	mv	a5,s6
   146d4:	00300713          	li	a4,3
   146d8:	0ee78863          	beq	a5,a4,147c8 <__divdf3+0x7a0>
   146dc:	00100713          	li	a4,1
   146e0:	0ee78e63          	beq	a5,a4,147dc <__divdf3+0x7b4>
   146e4:	00200713          	li	a4,2
   146e8:	f0e79ce3          	bne	a5,a4,14600 <__divdf3+0x5d8>
   146ec:	00000593          	li	a1,0
   146f0:	00000693          	li	a3,0
   146f4:	7ff00713          	li	a4,2047
   146f8:	f65ff06f          	j	1465c <__divdf3+0x634>
   146fc:	000a0493          	mv	s1,s4
   14700:	fd5ff06f          	j	146d4 <__divdf3+0x6ac>
   14704:	000809b7          	lui	s3,0x80
   14708:	00000693          	li	a3,0
   1470c:	00000493          	li	s1,0
   14710:	00300793          	li	a5,3
   14714:	fc1ff06f          	j	146d4 <__divdf3+0x6ac>
   14718:	00100593          	li	a1,1
   1471c:	40e585b3          	sub	a1,a1,a4
   14720:	03800793          	li	a5,56
   14724:	0ab7cc63          	blt	a5,a1,147dc <__divdf3+0x7b4>
   14728:	01f00793          	li	a5,31
   1472c:	06b7c463          	blt	a5,a1,14794 <__divdf3+0x76c>
   14730:	41e90913          	addi	s2,s2,1054
   14734:	012997b3          	sll	a5,s3,s2
   14738:	00b6d733          	srl	a4,a3,a1
   1473c:	01269933          	sll	s2,a3,s2
   14740:	00e7e7b3          	or	a5,a5,a4
   14744:	01203933          	snez	s2,s2
   14748:	0127e7b3          	or	a5,a5,s2
   1474c:	00b9d5b3          	srl	a1,s3,a1
   14750:	0077f713          	andi	a4,a5,7
   14754:	02070063          	beqz	a4,14774 <__divdf3+0x74c>
   14758:	00f7f713          	andi	a4,a5,15
   1475c:	00400693          	li	a3,4
   14760:	00d70a63          	beq	a4,a3,14774 <__divdf3+0x74c>
   14764:	00478713          	addi	a4,a5,4
   14768:	00f736b3          	sltu	a3,a4,a5
   1476c:	00d585b3          	add	a1,a1,a3
   14770:	00070793          	mv	a5,a4
   14774:	00859713          	slli	a4,a1,0x8
   14778:	06074863          	bltz	a4,147e8 <__divdf3+0x7c0>
   1477c:	01d59693          	slli	a3,a1,0x1d
   14780:	0037d793          	srli	a5,a5,0x3
   14784:	00f6e6b3          	or	a3,a3,a5
   14788:	0035d593          	srli	a1,a1,0x3
   1478c:	00000713          	li	a4,0
   14790:	ecdff06f          	j	1465c <__divdf3+0x634>
   14794:	fe100793          	li	a5,-31
   14798:	40e787b3          	sub	a5,a5,a4
   1479c:	02000613          	li	a2,32
   147a0:	00f9d7b3          	srl	a5,s3,a5
   147a4:	00000713          	li	a4,0
   147a8:	00c58663          	beq	a1,a2,147b4 <__divdf3+0x78c>
   147ac:	43e90713          	addi	a4,s2,1086
   147b0:	00e99733          	sll	a4,s3,a4
   147b4:	00d76733          	or	a4,a4,a3
   147b8:	00e03733          	snez	a4,a4
   147bc:	00e7e7b3          	or	a5,a5,a4
   147c0:	00000593          	li	a1,0
   147c4:	f8dff06f          	j	14750 <__divdf3+0x728>
   147c8:	000805b7          	lui	a1,0x80
   147cc:	00000693          	li	a3,0
   147d0:	7ff00713          	li	a4,2047
   147d4:	00000493          	li	s1,0
   147d8:	e85ff06f          	j	1465c <__divdf3+0x634>
   147dc:	00000593          	li	a1,0
   147e0:	00000693          	li	a3,0
   147e4:	fa9ff06f          	j	1478c <__divdf3+0x764>
   147e8:	00000593          	li	a1,0
   147ec:	00000693          	li	a3,0
   147f0:	00100713          	li	a4,1
   147f4:	e69ff06f          	j	1465c <__divdf3+0x634>
   147f8:	00068813          	mv	a6,a3
   147fc:	00080693          	mv	a3,a6
   14800:	dfdff06f          	j	145fc <__divdf3+0x5d4>

00014804 <__eqdf2>:
   14804:	0145d713          	srli	a4,a1,0x14
   14808:	001007b7          	lui	a5,0x100
   1480c:	fff78793          	addi	a5,a5,-1 # fffff <__stack_end+0xe7fff>
   14810:	0146d813          	srli	a6,a3,0x14
   14814:	00050313          	mv	t1,a0
   14818:	00050e93          	mv	t4,a0
   1481c:	7ff77713          	andi	a4,a4,2047
   14820:	7ff00513          	li	a0,2047
   14824:	00b7f8b3          	and	a7,a5,a1
   14828:	00060f13          	mv	t5,a2
   1482c:	00d7f7b3          	and	a5,a5,a3
   14830:	01f5d593          	srli	a1,a1,0x1f
   14834:	7ff87813          	andi	a6,a6,2047
   14838:	01f6d693          	srli	a3,a3,0x1f
   1483c:	00a71c63          	bne	a4,a0,14854 <__eqdf2+0x50>
   14840:	0068ee33          	or	t3,a7,t1
   14844:	00100513          	li	a0,1
   14848:	000e1463          	bnez	t3,14850 <__eqdf2+0x4c>
   1484c:	00e80663          	beq	a6,a4,14858 <__eqdf2+0x54>
   14850:	00008067          	ret
   14854:	00a81863          	bne	a6,a0,14864 <__eqdf2+0x60>
   14858:	00c7e633          	or	a2,a5,a2
   1485c:	00100513          	li	a0,1
   14860:	fe0618e3          	bnez	a2,14850 <__eqdf2+0x4c>
   14864:	00100513          	li	a0,1
   14868:	ff0714e3          	bne	a4,a6,14850 <__eqdf2+0x4c>
   1486c:	fef892e3          	bne	a7,a5,14850 <__eqdf2+0x4c>
   14870:	ffee90e3          	bne	t4,t5,14850 <__eqdf2+0x4c>
   14874:	00d58a63          	beq	a1,a3,14888 <__eqdf2+0x84>
   14878:	fc071ce3          	bnez	a4,14850 <__eqdf2+0x4c>
   1487c:	0068e8b3          	or	a7,a7,t1
   14880:	01103533          	snez	a0,a7
   14884:	00008067          	ret
   14888:	00000513          	li	a0,0
   1488c:	00008067          	ret

00014890 <__gedf2>:
   14890:	0146d793          	srli	a5,a3,0x14
   14894:	0145d893          	srli	a7,a1,0x14
   14898:	00100737          	lui	a4,0x100
   1489c:	fff70713          	addi	a4,a4,-1 # fffff <__stack_end+0xe7fff>
   148a0:	00050813          	mv	a6,a0
   148a4:	00050e13          	mv	t3,a0
   148a8:	7ff8f893          	andi	a7,a7,2047
   148ac:	7ff7f513          	andi	a0,a5,2047
   148b0:	7ff00793          	li	a5,2047
   148b4:	00b77333          	and	t1,a4,a1
   148b8:	00060e93          	mv	t4,a2
   148bc:	00d77733          	and	a4,a4,a3
   148c0:	01f5d593          	srli	a1,a1,0x1f
   148c4:	01f6d693          	srli	a3,a3,0x1f
   148c8:	00f89663          	bne	a7,a5,148d4 <__gedf2+0x44>
   148cc:	010367b3          	or	a5,t1,a6
   148d0:	06079c63          	bnez	a5,14948 <__gedf2+0xb8>
   148d4:	7ff00793          	li	a5,2047
   148d8:	00f51663          	bne	a0,a5,148e4 <__gedf2+0x54>
   148dc:	00c767b3          	or	a5,a4,a2
   148e0:	06079463          	bnez	a5,14948 <__gedf2+0xb8>
   148e4:	00000793          	li	a5,0
   148e8:	00089663          	bnez	a7,148f4 <__gedf2+0x64>
   148ec:	01036833          	or	a6,t1,a6
   148f0:	00183793          	seqz	a5,a6
   148f4:	04051e63          	bnez	a0,14950 <__gedf2+0xc0>
   148f8:	00c76633          	or	a2,a4,a2
   148fc:	00078c63          	beqz	a5,14914 <__gedf2+0x84>
   14900:	02060063          	beqz	a2,14920 <__gedf2+0x90>
   14904:	00100513          	li	a0,1
   14908:	00069c63          	bnez	a3,14920 <__gedf2+0x90>
   1490c:	fff00513          	li	a0,-1
   14910:	00008067          	ret
   14914:	04061063          	bnez	a2,14954 <__gedf2+0xc4>
   14918:	fff00513          	li	a0,-1
   1491c:	04058463          	beqz	a1,14964 <__gedf2+0xd4>
   14920:	00008067          	ret
   14924:	fea8c0e3          	blt	a7,a0,14904 <__gedf2+0x74>
   14928:	fe6768e3          	bltu	a4,t1,14918 <__gedf2+0x88>
   1492c:	00e31863          	bne	t1,a4,1493c <__gedf2+0xac>
   14930:	ffcee4e3          	bltu	t4,t3,14918 <__gedf2+0x88>
   14934:	00000513          	li	a0,0
   14938:	ffde74e3          	bgeu	t3,t4,14920 <__gedf2+0x90>
   1493c:	00100513          	li	a0,1
   14940:	fe0590e3          	bnez	a1,14920 <__gedf2+0x90>
   14944:	fc9ff06f          	j	1490c <__gedf2+0x7c>
   14948:	ffe00513          	li	a0,-2
   1494c:	00008067          	ret
   14950:	fa079ae3          	bnez	a5,14904 <__gedf2+0x74>
   14954:	fcb692e3          	bne	a3,a1,14918 <__gedf2+0x88>
   14958:	fd1556e3          	bge	a0,a7,14924 <__gedf2+0x94>
   1495c:	fff00513          	li	a0,-1
   14960:	fc0690e3          	bnez	a3,14920 <__gedf2+0x90>
   14964:	00100513          	li	a0,1
   14968:	00008067          	ret

0001496c <__ledf2>:
   1496c:	0146d793          	srli	a5,a3,0x14
   14970:	0145d893          	srli	a7,a1,0x14
   14974:	00100737          	lui	a4,0x100
   14978:	fff70713          	addi	a4,a4,-1 # fffff <__stack_end+0xe7fff>
   1497c:	00050813          	mv	a6,a0
   14980:	00050e13          	mv	t3,a0
   14984:	7ff8f893          	andi	a7,a7,2047
   14988:	7ff7f513          	andi	a0,a5,2047
   1498c:	7ff00793          	li	a5,2047
   14990:	00b77333          	and	t1,a4,a1
   14994:	00060e93          	mv	t4,a2
   14998:	00d77733          	and	a4,a4,a3
   1499c:	01f5d593          	srli	a1,a1,0x1f
   149a0:	01f6d693          	srli	a3,a3,0x1f
   149a4:	00f89663          	bne	a7,a5,149b0 <__ledf2+0x44>
   149a8:	010367b3          	or	a5,t1,a6
   149ac:	06079c63          	bnez	a5,14a24 <__ledf2+0xb8>
   149b0:	7ff00793          	li	a5,2047
   149b4:	00f51663          	bne	a0,a5,149c0 <__ledf2+0x54>
   149b8:	00c767b3          	or	a5,a4,a2
   149bc:	06079463          	bnez	a5,14a24 <__ledf2+0xb8>
   149c0:	00000793          	li	a5,0
   149c4:	00089663          	bnez	a7,149d0 <__ledf2+0x64>
   149c8:	01036833          	or	a6,t1,a6
   149cc:	00183793          	seqz	a5,a6
   149d0:	04051e63          	bnez	a0,14a2c <__ledf2+0xc0>
   149d4:	00c76633          	or	a2,a4,a2
   149d8:	00078c63          	beqz	a5,149f0 <__ledf2+0x84>
   149dc:	02060063          	beqz	a2,149fc <__ledf2+0x90>
   149e0:	00100513          	li	a0,1
   149e4:	00069c63          	bnez	a3,149fc <__ledf2+0x90>
   149e8:	fff00513          	li	a0,-1
   149ec:	00008067          	ret
   149f0:	04061063          	bnez	a2,14a30 <__ledf2+0xc4>
   149f4:	fff00513          	li	a0,-1
   149f8:	04058463          	beqz	a1,14a40 <__ledf2+0xd4>
   149fc:	00008067          	ret
   14a00:	fea8c0e3          	blt	a7,a0,149e0 <__ledf2+0x74>
   14a04:	fe6768e3          	bltu	a4,t1,149f4 <__ledf2+0x88>
   14a08:	00e31863          	bne	t1,a4,14a18 <__ledf2+0xac>
   14a0c:	ffcee4e3          	bltu	t4,t3,149f4 <__ledf2+0x88>
   14a10:	00000513          	li	a0,0
   14a14:	ffde74e3          	bgeu	t3,t4,149fc <__ledf2+0x90>
   14a18:	00100513          	li	a0,1
   14a1c:	fe0590e3          	bnez	a1,149fc <__ledf2+0x90>
   14a20:	fc9ff06f          	j	149e8 <__ledf2+0x7c>
   14a24:	00200513          	li	a0,2
   14a28:	00008067          	ret
   14a2c:	fa079ae3          	bnez	a5,149e0 <__ledf2+0x74>
   14a30:	fcb692e3          	bne	a3,a1,149f4 <__ledf2+0x88>
   14a34:	fd1556e3          	bge	a0,a7,14a00 <__ledf2+0x94>
   14a38:	fff00513          	li	a0,-1
   14a3c:	fc0690e3          	bnez	a3,149fc <__ledf2+0x90>
   14a40:	00100513          	li	a0,1
   14a44:	00008067          	ret

00014a48 <__muldf3>:
   14a48:	fd010113          	addi	sp,sp,-48
   14a4c:	01512a23          	sw	s5,20(sp)
   14a50:	0145da93          	srli	s5,a1,0x14
   14a54:	02812423          	sw	s0,40(sp)
   14a58:	02912223          	sw	s1,36(sp)
   14a5c:	03212023          	sw	s2,32(sp)
   14a60:	01312e23          	sw	s3,28(sp)
   14a64:	01612823          	sw	s6,16(sp)
   14a68:	00c59493          	slli	s1,a1,0xc
   14a6c:	02112623          	sw	ra,44(sp)
   14a70:	01412c23          	sw	s4,24(sp)
   14a74:	01712623          	sw	s7,12(sp)
   14a78:	7ffafa93          	andi	s5,s5,2047
   14a7c:	00050413          	mv	s0,a0
   14a80:	00060b13          	mv	s6,a2
   14a84:	00068913          	mv	s2,a3
   14a88:	00c4d493          	srli	s1,s1,0xc
   14a8c:	01f5d993          	srli	s3,a1,0x1f
   14a90:	300a8e63          	beqz	s5,14dac <__muldf3+0x364>
   14a94:	7ff00793          	li	a5,2047
   14a98:	38fa8063          	beq	s5,a5,14e18 <__muldf3+0x3d0>
   14a9c:	00349493          	slli	s1,s1,0x3
   14aa0:	01d55793          	srli	a5,a0,0x1d
   14aa4:	0097e7b3          	or	a5,a5,s1
   14aa8:	008004b7          	lui	s1,0x800
   14aac:	0097e4b3          	or	s1,a5,s1
   14ab0:	00351a13          	slli	s4,a0,0x3
   14ab4:	c01a8a93          	addi	s5,s5,-1023
   14ab8:	00000b93          	li	s7,0
   14abc:	01495713          	srli	a4,s2,0x14
   14ac0:	00c91413          	slli	s0,s2,0xc
   14ac4:	7ff77713          	andi	a4,a4,2047
   14ac8:	00c45413          	srli	s0,s0,0xc
   14acc:	01f95913          	srli	s2,s2,0x1f
   14ad0:	38070063          	beqz	a4,14e50 <__muldf3+0x408>
   14ad4:	7ff00793          	li	a5,2047
   14ad8:	3ef70463          	beq	a4,a5,14ec0 <__muldf3+0x478>
   14adc:	00341413          	slli	s0,s0,0x3
   14ae0:	01db5793          	srli	a5,s6,0x1d
   14ae4:	0087e7b3          	or	a5,a5,s0
   14ae8:	00800437          	lui	s0,0x800
   14aec:	0087e433          	or	s0,a5,s0
   14af0:	c0170693          	addi	a3,a4,-1023
   14af4:	003b1793          	slli	a5,s6,0x3
   14af8:	00000713          	li	a4,0
   14afc:	00da8ab3          	add	s5,s5,a3
   14b00:	002b9693          	slli	a3,s7,0x2
   14b04:	00e6e6b3          	or	a3,a3,a4
   14b08:	00a00613          	li	a2,10
   14b0c:	001a8893          	addi	a7,s5,1
   14b10:	4cd64663          	blt	a2,a3,14fdc <__muldf3+0x594>
   14b14:	00200613          	li	a2,2
   14b18:	0129c833          	xor	a6,s3,s2
   14b1c:	3cd64e63          	blt	a2,a3,14ef8 <__muldf3+0x4b0>
   14b20:	fff68693          	addi	a3,a3,-1
   14b24:	00100613          	li	a2,1
   14b28:	3ed67a63          	bgeu	a2,a3,14f1c <__muldf3+0x4d4>
   14b2c:	00010937          	lui	s2,0x10
   14b30:	fff90713          	addi	a4,s2,-1 # ffff <uart_tx+0xefff>
   14b34:	010a5293          	srli	t0,s4,0x10
   14b38:	00e7ffb3          	and	t6,a5,a4
   14b3c:	00ea7a33          	and	s4,s4,a4
   14b40:	0107df13          	srli	t5,a5,0x10
   14b44:	000a0513          	mv	a0,s4
   14b48:	000f8593          	mv	a1,t6
   14b4c:	62c000ef          	jal	15178 <__mulsi3>
   14b50:	00050793          	mv	a5,a0
   14b54:	000f0593          	mv	a1,t5
   14b58:	000a0513          	mv	a0,s4
   14b5c:	61c000ef          	jal	15178 <__mulsi3>
   14b60:	00050e93          	mv	t4,a0
   14b64:	000f8593          	mv	a1,t6
   14b68:	00028513          	mv	a0,t0
   14b6c:	60c000ef          	jal	15178 <__mulsi3>
   14b70:	00050393          	mv	t2,a0
   14b74:	000f0593          	mv	a1,t5
   14b78:	00028513          	mv	a0,t0
   14b7c:	5fc000ef          	jal	15178 <__mulsi3>
   14b80:	0107d313          	srli	t1,a5,0x10
   14b84:	007e8eb3          	add	t4,t4,t2
   14b88:	01d30333          	add	t1,t1,t4
   14b8c:	00050e13          	mv	t3,a0
   14b90:	00737463          	bgeu	t1,t2,14b98 <__muldf3+0x150>
   14b94:	01250e33          	add	t3,a0,s2
   14b98:	01035993          	srli	s3,t1,0x10
   14b9c:	00e37333          	and	t1,t1,a4
   14ba0:	00e7f7b3          	and	a5,a5,a4
   14ba4:	01031313          	slli	t1,t1,0x10
   14ba8:	00e47733          	and	a4,s0,a4
   14bac:	00f30333          	add	t1,t1,a5
   14bb0:	01045913          	srli	s2,s0,0x10
   14bb4:	000a0513          	mv	a0,s4
   14bb8:	00070593          	mv	a1,a4
   14bbc:	5bc000ef          	jal	15178 <__mulsi3>
   14bc0:	00050393          	mv	t2,a0
   14bc4:	00090593          	mv	a1,s2
   14bc8:	000a0513          	mv	a0,s4
   14bcc:	5ac000ef          	jal	15178 <__mulsi3>
   14bd0:	00050e93          	mv	t4,a0
   14bd4:	00070593          	mv	a1,a4
   14bd8:	00028513          	mv	a0,t0
   14bdc:	59c000ef          	jal	15178 <__mulsi3>
   14be0:	00050413          	mv	s0,a0
   14be4:	00090593          	mv	a1,s2
   14be8:	00028513          	mv	a0,t0
   14bec:	58c000ef          	jal	15178 <__mulsi3>
   14bf0:	0103d613          	srli	a2,t2,0x10
   14bf4:	008e8eb3          	add	t4,t4,s0
   14bf8:	01d60633          	add	a2,a2,t4
   14bfc:	00050793          	mv	a5,a0
   14c00:	00867663          	bgeu	a2,s0,14c0c <__muldf3+0x1c4>
   14c04:	000106b7          	lui	a3,0x10
   14c08:	00d507b3          	add	a5,a0,a3
   14c0c:	00010a37          	lui	s4,0x10
   14c10:	fffa0e93          	addi	t4,s4,-1 # ffff <uart_tx+0xefff>
   14c14:	01065293          	srli	t0,a2,0x10
   14c18:	00f282b3          	add	t0,t0,a5
   14c1c:	01d677b3          	and	a5,a2,t4
   14c20:	01d3f3b3          	and	t2,t2,t4
   14c24:	01079793          	slli	a5,a5,0x10
   14c28:	007787b3          	add	a5,a5,t2
   14c2c:	01d4feb3          	and	t4,s1,t4
   14c30:	00f98433          	add	s0,s3,a5
   14c34:	000e8513          	mv	a0,t4
   14c38:	0104d993          	srli	s3,s1,0x10
   14c3c:	000f8593          	mv	a1,t6
   14c40:	538000ef          	jal	15178 <__mulsi3>
   14c44:	00050493          	mv	s1,a0
   14c48:	000f0593          	mv	a1,t5
   14c4c:	000e8513          	mv	a0,t4
   14c50:	528000ef          	jal	15178 <__mulsi3>
   14c54:	00050393          	mv	t2,a0
   14c58:	000f8593          	mv	a1,t6
   14c5c:	00098513          	mv	a0,s3
   14c60:	518000ef          	jal	15178 <__mulsi3>
   14c64:	00050f93          	mv	t6,a0
   14c68:	000f0593          	mv	a1,t5
   14c6c:	00098513          	mv	a0,s3
   14c70:	508000ef          	jal	15178 <__mulsi3>
   14c74:	0104d613          	srli	a2,s1,0x10
   14c78:	01f383b3          	add	t2,t2,t6
   14c7c:	00760633          	add	a2,a2,t2
   14c80:	00050693          	mv	a3,a0
   14c84:	01f67463          	bgeu	a2,t6,14c8c <__muldf3+0x244>
   14c88:	014506b3          	add	a3,a0,s4
   14c8c:	00010a37          	lui	s4,0x10
   14c90:	fffa0393          	addi	t2,s4,-1 # ffff <uart_tx+0xefff>
   14c94:	01065f93          	srli	t6,a2,0x10
   14c98:	00767633          	and	a2,a2,t2
   14c9c:	01061613          	slli	a2,a2,0x10
   14ca0:	0074f4b3          	and	s1,s1,t2
   14ca4:	00df8fb3          	add	t6,t6,a3
   14ca8:	00960f33          	add	t5,a2,s1
   14cac:	000e8513          	mv	a0,t4
   14cb0:	00070593          	mv	a1,a4
   14cb4:	4c4000ef          	jal	15178 <__mulsi3>
   14cb8:	00050493          	mv	s1,a0
   14cbc:	00090593          	mv	a1,s2
   14cc0:	000e8513          	mv	a0,t4
   14cc4:	4b4000ef          	jal	15178 <__mulsi3>
   14cc8:	00050b13          	mv	s6,a0
   14ccc:	00070593          	mv	a1,a4
   14cd0:	00098513          	mv	a0,s3
   14cd4:	4a4000ef          	jal	15178 <__mulsi3>
   14cd8:	00050713          	mv	a4,a0
   14cdc:	00090593          	mv	a1,s2
   14ce0:	00098513          	mv	a0,s3
   14ce4:	494000ef          	jal	15178 <__mulsi3>
   14ce8:	0104d593          	srli	a1,s1,0x10
   14cec:	00eb0b33          	add	s6,s6,a4
   14cf0:	016585b3          	add	a1,a1,s6
   14cf4:	00050e93          	mv	t4,a0
   14cf8:	00e5f463          	bgeu	a1,a4,14d00 <__muldf3+0x2b8>
   14cfc:	01450eb3          	add	t4,a0,s4
   14d00:	0075f733          	and	a4,a1,t2
   14d04:	01071713          	slli	a4,a4,0x10
   14d08:	0074f4b3          	and	s1,s1,t2
   14d0c:	008e06b3          	add	a3,t3,s0
   14d10:	00970733          	add	a4,a4,s1
   14d14:	005702b3          	add	t0,a4,t0
   14d18:	00f6b7b3          	sltu	a5,a3,a5
   14d1c:	00f287b3          	add	a5,t0,a5
   14d20:	00e2b633          	sltu	a2,t0,a4
   14d24:	0057b2b3          	sltu	t0,a5,t0
   14d28:	0105d593          	srli	a1,a1,0x10
   14d2c:	00566633          	or	a2,a2,t0
   14d30:	00b60633          	add	a2,a2,a1
   14d34:	01e685b3          	add	a1,a3,t5
   14d38:	01f78fb3          	add	t6,a5,t6
   14d3c:	00d5b6b3          	sltu	a3,a1,a3
   14d40:	00df86b3          	add	a3,t6,a3
   14d44:	00ffb733          	sltu	a4,t6,a5
   14d48:	01f6bfb3          	sltu	t6,a3,t6
   14d4c:	00959793          	slli	a5,a1,0x9
   14d50:	01f76733          	or	a4,a4,t6
   14d54:	00c70733          	add	a4,a4,a2
   14d58:	0067e7b3          	or	a5,a5,t1
   14d5c:	01d70733          	add	a4,a4,t4
   14d60:	00f037b3          	snez	a5,a5
   14d64:	0175d593          	srli	a1,a1,0x17
   14d68:	00971713          	slli	a4,a4,0x9
   14d6c:	0176d413          	srli	s0,a3,0x17
   14d70:	00b7e7b3          	or	a5,a5,a1
   14d74:	00969693          	slli	a3,a3,0x9
   14d78:	00d7e7b3          	or	a5,a5,a3
   14d7c:	00771693          	slli	a3,a4,0x7
   14d80:	00876433          	or	s0,a4,s0
   14d84:	0206d063          	bgez	a3,14da4 <__muldf3+0x35c>
   14d88:	0017d713          	srli	a4,a5,0x1
   14d8c:	0017f793          	andi	a5,a5,1
   14d90:	00f76733          	or	a4,a4,a5
   14d94:	01f41793          	slli	a5,s0,0x1f
   14d98:	00f767b3          	or	a5,a4,a5
   14d9c:	00145413          	srli	s0,s0,0x1
   14da0:	00088a93          	mv	s5,a7
   14da4:	000a8893          	mv	a7,s5
   14da8:	18c0006f          	j	14f34 <__muldf3+0x4ec>
   14dac:	00a4ea33          	or	s4,s1,a0
   14db0:	080a0063          	beqz	s4,14e30 <__muldf3+0x3e8>
   14db4:	04048063          	beqz	s1,14df4 <__muldf3+0x3ac>
   14db8:	00048513          	mv	a0,s1
   14dbc:	494000ef          	jal	15250 <__clzsi2>
   14dc0:	ff550713          	addi	a4,a0,-11
   14dc4:	01d00793          	li	a5,29
   14dc8:	ff850693          	addi	a3,a0,-8
   14dcc:	40e787b3          	sub	a5,a5,a4
   14dd0:	00d494b3          	sll	s1,s1,a3
   14dd4:	00f457b3          	srl	a5,s0,a5
   14dd8:	0097e7b3          	or	a5,a5,s1
   14ddc:	00d414b3          	sll	s1,s0,a3
   14de0:	c0d00a93          	li	s5,-1011
   14de4:	00048a13          	mv	s4,s1
   14de8:	40aa8ab3          	sub	s5,s5,a0
   14dec:	00078493          	mv	s1,a5
   14df0:	cc9ff06f          	j	14ab8 <__muldf3+0x70>
   14df4:	45c000ef          	jal	15250 <__clzsi2>
   14df8:	00050793          	mv	a5,a0
   14dfc:	01578713          	addi	a4,a5,21
   14e00:	01c00693          	li	a3,28
   14e04:	02050513          	addi	a0,a0,32
   14e08:	fae6dee3          	bge	a3,a4,14dc4 <__muldf3+0x37c>
   14e0c:	ff878793          	addi	a5,a5,-8
   14e10:	00f417b3          	sll	a5,s0,a5
   14e14:	fcdff06f          	j	14de0 <__muldf3+0x398>
   14e18:	00a4ea33          	or	s4,s1,a0
   14e1c:	020a1263          	bnez	s4,14e40 <__muldf3+0x3f8>
   14e20:	00000493          	li	s1,0
   14e24:	7ff00a93          	li	s5,2047
   14e28:	00200b93          	li	s7,2
   14e2c:	c91ff06f          	j	14abc <__muldf3+0x74>
   14e30:	00000493          	li	s1,0
   14e34:	00000a93          	li	s5,0
   14e38:	00100b93          	li	s7,1
   14e3c:	c81ff06f          	j	14abc <__muldf3+0x74>
   14e40:	00050a13          	mv	s4,a0
   14e44:	7ff00a93          	li	s5,2047
   14e48:	00300b93          	li	s7,3
   14e4c:	c71ff06f          	j	14abc <__muldf3+0x74>
   14e50:	016467b3          	or	a5,s0,s6
   14e54:	08078263          	beqz	a5,14ed8 <__muldf3+0x490>
   14e58:	04040063          	beqz	s0,14e98 <__muldf3+0x450>
   14e5c:	00040513          	mv	a0,s0
   14e60:	3f0000ef          	jal	15250 <__clzsi2>
   14e64:	ff550693          	addi	a3,a0,-11
   14e68:	01d00713          	li	a4,29
   14e6c:	ff850793          	addi	a5,a0,-8
   14e70:	40d70733          	sub	a4,a4,a3
   14e74:	00f41433          	sll	s0,s0,a5
   14e78:	00eb5733          	srl	a4,s6,a4
   14e7c:	00876733          	or	a4,a4,s0
   14e80:	00fb1433          	sll	s0,s6,a5
   14e84:	c0d00693          	li	a3,-1011
   14e88:	00040793          	mv	a5,s0
   14e8c:	40a686b3          	sub	a3,a3,a0
   14e90:	00070413          	mv	s0,a4
   14e94:	c65ff06f          	j	14af8 <__muldf3+0xb0>
   14e98:	000b0513          	mv	a0,s6
   14e9c:	3b4000ef          	jal	15250 <__clzsi2>
   14ea0:	00050793          	mv	a5,a0
   14ea4:	01578693          	addi	a3,a5,21
   14ea8:	01c00713          	li	a4,28
   14eac:	02050513          	addi	a0,a0,32
   14eb0:	fad75ce3          	bge	a4,a3,14e68 <__muldf3+0x420>
   14eb4:	ff878793          	addi	a5,a5,-8
   14eb8:	00fb1733          	sll	a4,s6,a5
   14ebc:	fc9ff06f          	j	14e84 <__muldf3+0x43c>
   14ec0:	016467b3          	or	a5,s0,s6
   14ec4:	02079263          	bnez	a5,14ee8 <__muldf3+0x4a0>
   14ec8:	00000413          	li	s0,0
   14ecc:	7ff00693          	li	a3,2047
   14ed0:	00200713          	li	a4,2
   14ed4:	c29ff06f          	j	14afc <__muldf3+0xb4>
   14ed8:	00000413          	li	s0,0
   14edc:	00000693          	li	a3,0
   14ee0:	00100713          	li	a4,1
   14ee4:	c19ff06f          	j	14afc <__muldf3+0xb4>
   14ee8:	000b0793          	mv	a5,s6
   14eec:	7ff00693          	li	a3,2047
   14ef0:	00300713          	li	a4,3
   14ef4:	c09ff06f          	j	14afc <__muldf3+0xb4>
   14ef8:	00100613          	li	a2,1
   14efc:	00d61633          	sll	a2,a2,a3
   14f00:	53067693          	andi	a3,a2,1328
   14f04:	0e069663          	bnez	a3,14ff0 <__muldf3+0x5a8>
   14f08:	24067593          	andi	a1,a2,576
   14f0c:	1a059a63          	bnez	a1,150c0 <__muldf3+0x678>
   14f10:	08867613          	andi	a2,a2,136
   14f14:	c0060ce3          	beqz	a2,14b2c <__muldf3+0xe4>
   14f18:	00090813          	mv	a6,s2
   14f1c:	00200693          	li	a3,2
   14f20:	18d70863          	beq	a4,a3,150b0 <__muldf3+0x668>
   14f24:	00300693          	li	a3,3
   14f28:	1ad70463          	beq	a4,a3,150d0 <__muldf3+0x688>
   14f2c:	00100693          	li	a3,1
   14f30:	1ad70663          	beq	a4,a3,150dc <__muldf3+0x694>
   14f34:	3ff88613          	addi	a2,a7,1023
   14f38:	0cc05463          	blez	a2,15000 <__muldf3+0x5b8>
   14f3c:	0077f713          	andi	a4,a5,7
   14f40:	02070063          	beqz	a4,14f60 <__muldf3+0x518>
   14f44:	00f7f713          	andi	a4,a5,15
   14f48:	00400693          	li	a3,4
   14f4c:	00d70a63          	beq	a4,a3,14f60 <__muldf3+0x518>
   14f50:	00478713          	addi	a4,a5,4
   14f54:	00f736b3          	sltu	a3,a4,a5
   14f58:	00d40433          	add	s0,s0,a3
   14f5c:	00070793          	mv	a5,a4
   14f60:	00741713          	slli	a4,s0,0x7
   14f64:	00075a63          	bgez	a4,14f78 <__muldf3+0x530>
   14f68:	ff000737          	lui	a4,0xff000
   14f6c:	fff70713          	addi	a4,a4,-1 # feffffff <__stack_end+0xfefe7fff>
   14f70:	00e47433          	and	s0,s0,a4
   14f74:	40088613          	addi	a2,a7,1024
   14f78:	7fe00713          	li	a4,2046
   14f7c:	12c74a63          	blt	a4,a2,150b0 <__muldf3+0x668>
   14f80:	0037d793          	srli	a5,a5,0x3
   14f84:	01d41693          	slli	a3,s0,0x1d
   14f88:	00f6e6b3          	or	a3,a3,a5
   14f8c:	00345713          	srli	a4,s0,0x3
   14f90:	00c71713          	slli	a4,a4,0xc
   14f94:	02c12083          	lw	ra,44(sp)
   14f98:	02812403          	lw	s0,40(sp)
   14f9c:	01461613          	slli	a2,a2,0x14
   14fa0:	00c75713          	srli	a4,a4,0xc
   14fa4:	00e66633          	or	a2,a2,a4
   14fa8:	01f81813          	slli	a6,a6,0x1f
   14fac:	010667b3          	or	a5,a2,a6
   14fb0:	02412483          	lw	s1,36(sp)
   14fb4:	02012903          	lw	s2,32(sp)
   14fb8:	01c12983          	lw	s3,28(sp)
   14fbc:	01812a03          	lw	s4,24(sp)
   14fc0:	01412a83          	lw	s5,20(sp)
   14fc4:	01012b03          	lw	s6,16(sp)
   14fc8:	00c12b83          	lw	s7,12(sp)
   14fcc:	00068513          	mv	a0,a3
   14fd0:	00078593          	mv	a1,a5
   14fd4:	03010113          	addi	sp,sp,48
   14fd8:	00008067          	ret
   14fdc:	00f00613          	li	a2,15
   14fe0:	0ec68863          	beq	a3,a2,150d0 <__muldf3+0x688>
   14fe4:	00b00613          	li	a2,11
   14fe8:	00098813          	mv	a6,s3
   14fec:	f2c686e3          	beq	a3,a2,14f18 <__muldf3+0x4d0>
   14ff0:	00048413          	mv	s0,s1
   14ff4:	000a0793          	mv	a5,s4
   14ff8:	000b8713          	mv	a4,s7
   14ffc:	f21ff06f          	j	14f1c <__muldf3+0x4d4>
   15000:	00100713          	li	a4,1
   15004:	40c70733          	sub	a4,a4,a2
   15008:	03800693          	li	a3,56
   1500c:	0ce6c863          	blt	a3,a4,150dc <__muldf3+0x694>
   15010:	01f00693          	li	a3,31
   15014:	06e6c463          	blt	a3,a4,1507c <__muldf3+0x634>
   15018:	41e88893          	addi	a7,a7,1054
   1501c:	00e7d633          	srl	a2,a5,a4
   15020:	011416b3          	sll	a3,s0,a7
   15024:	011798b3          	sll	a7,a5,a7
   15028:	00c6e6b3          	or	a3,a3,a2
   1502c:	011038b3          	snez	a7,a7
   15030:	0116e7b3          	or	a5,a3,a7
   15034:	00e45733          	srl	a4,s0,a4
   15038:	0077f693          	andi	a3,a5,7
   1503c:	02068063          	beqz	a3,1505c <__muldf3+0x614>
   15040:	00f7f693          	andi	a3,a5,15
   15044:	00400613          	li	a2,4
   15048:	00c68a63          	beq	a3,a2,1505c <__muldf3+0x614>
   1504c:	00478693          	addi	a3,a5,4
   15050:	00f6b633          	sltu	a2,a3,a5
   15054:	00c70733          	add	a4,a4,a2
   15058:	00068793          	mv	a5,a3
   1505c:	00871693          	slli	a3,a4,0x8
   15060:	0806c463          	bltz	a3,150e8 <__muldf3+0x6a0>
   15064:	01d71693          	slli	a3,a4,0x1d
   15068:	0037d793          	srli	a5,a5,0x3
   1506c:	00f6e6b3          	or	a3,a3,a5
   15070:	00375713          	srli	a4,a4,0x3
   15074:	00000613          	li	a2,0
   15078:	f19ff06f          	j	14f90 <__muldf3+0x548>
   1507c:	fe100693          	li	a3,-31
   15080:	40c686b3          	sub	a3,a3,a2
   15084:	02000593          	li	a1,32
   15088:	00d456b3          	srl	a3,s0,a3
   1508c:	00000613          	li	a2,0
   15090:	00b70663          	beq	a4,a1,1509c <__muldf3+0x654>
   15094:	43e88613          	addi	a2,a7,1086
   15098:	00c41633          	sll	a2,s0,a2
   1509c:	00f66633          	or	a2,a2,a5
   150a0:	00c03633          	snez	a2,a2
   150a4:	00c6e7b3          	or	a5,a3,a2
   150a8:	00000713          	li	a4,0
   150ac:	f8dff06f          	j	15038 <__muldf3+0x5f0>
   150b0:	00000713          	li	a4,0
   150b4:	00000693          	li	a3,0
   150b8:	7ff00613          	li	a2,2047
   150bc:	ed5ff06f          	j	14f90 <__muldf3+0x548>
   150c0:	00080737          	lui	a4,0x80
   150c4:	7ff00613          	li	a2,2047
   150c8:	00000813          	li	a6,0
   150cc:	ec5ff06f          	j	14f90 <__muldf3+0x548>
   150d0:	00080737          	lui	a4,0x80
   150d4:	00000693          	li	a3,0
   150d8:	fedff06f          	j	150c4 <__muldf3+0x67c>
   150dc:	00000713          	li	a4,0
   150e0:	00000693          	li	a3,0
   150e4:	f91ff06f          	j	15074 <__muldf3+0x62c>
   150e8:	00000713          	li	a4,0
   150ec:	00000693          	li	a3,0
   150f0:	00100613          	li	a2,1
   150f4:	e9dff06f          	j	14f90 <__muldf3+0x548>

000150f8 <__fixdfsi>:
   150f8:	0145d713          	srli	a4,a1,0x14
   150fc:	001006b7          	lui	a3,0x100
   15100:	fff68793          	addi	a5,a3,-1 # fffff <__stack_end+0xe7fff>
   15104:	7ff77713          	andi	a4,a4,2047
   15108:	3fe00613          	li	a2,1022
   1510c:	00b7f7b3          	and	a5,a5,a1
   15110:	01f5d593          	srli	a1,a1,0x1f
   15114:	04e65e63          	bge	a2,a4,15170 <__fixdfsi+0x78>
   15118:	41d00613          	li	a2,1053
   1511c:	00e65a63          	bge	a2,a4,15130 <__fixdfsi+0x38>
   15120:	80000537          	lui	a0,0x80000
   15124:	fff50513          	addi	a0,a0,-1 # 7fffffff <__stack_end+0x7ffe7fff>
   15128:	00a58533          	add	a0,a1,a0
   1512c:	00008067          	ret
   15130:	00d7e7b3          	or	a5,a5,a3
   15134:	43300693          	li	a3,1075
   15138:	40e686b3          	sub	a3,a3,a4
   1513c:	01f00613          	li	a2,31
   15140:	02d64063          	blt	a2,a3,15160 <__fixdfsi+0x68>
   15144:	bed70713          	addi	a4,a4,-1043 # 7fbed <__stack_end+0x67bed>
   15148:	00e797b3          	sll	a5,a5,a4
   1514c:	00d55533          	srl	a0,a0,a3
   15150:	00a7e533          	or	a0,a5,a0
   15154:	02058063          	beqz	a1,15174 <__fixdfsi+0x7c>
   15158:	40a00533          	neg	a0,a0
   1515c:	00008067          	ret
   15160:	41300693          	li	a3,1043
   15164:	40e68733          	sub	a4,a3,a4
   15168:	00e7d533          	srl	a0,a5,a4
   1516c:	fe9ff06f          	j	15154 <__fixdfsi+0x5c>
   15170:	00000513          	li	a0,0
   15174:	00008067          	ret

00015178 <__mulsi3>:
   15178:	00050613          	mv	a2,a0
   1517c:	00000513          	li	a0,0
   15180:	0015f693          	andi	a3,a1,1
   15184:	00068463          	beqz	a3,1518c <__mulsi3+0x14>
   15188:	00c50533          	add	a0,a0,a2
   1518c:	0015d593          	srli	a1,a1,0x1
   15190:	00161613          	slli	a2,a2,0x1
   15194:	fe0596e3          	bnez	a1,15180 <__mulsi3+0x8>
   15198:	00008067          	ret

0001519c <__divsi3>:
   1519c:	06054063          	bltz	a0,151fc <__umodsi3+0x10>
   151a0:	0605c663          	bltz	a1,1520c <__umodsi3+0x20>

000151a4 <__hidden___udivsi3>:
   151a4:	00058613          	mv	a2,a1
   151a8:	00050593          	mv	a1,a0
   151ac:	fff00513          	li	a0,-1
   151b0:	02060c63          	beqz	a2,151e8 <__hidden___udivsi3+0x44>
   151b4:	00100693          	li	a3,1
   151b8:	00b67a63          	bgeu	a2,a1,151cc <__hidden___udivsi3+0x28>
   151bc:	00c05863          	blez	a2,151cc <__hidden___udivsi3+0x28>
   151c0:	00161613          	slli	a2,a2,0x1
   151c4:	00169693          	slli	a3,a3,0x1
   151c8:	feb66ae3          	bltu	a2,a1,151bc <__hidden___udivsi3+0x18>
   151cc:	00000513          	li	a0,0
   151d0:	00c5e663          	bltu	a1,a2,151dc <__hidden___udivsi3+0x38>
   151d4:	40c585b3          	sub	a1,a1,a2
   151d8:	00d56533          	or	a0,a0,a3
   151dc:	0016d693          	srli	a3,a3,0x1
   151e0:	00165613          	srli	a2,a2,0x1
   151e4:	fe0696e3          	bnez	a3,151d0 <__hidden___udivsi3+0x2c>
   151e8:	00008067          	ret

000151ec <__umodsi3>:
   151ec:	00008293          	mv	t0,ra
   151f0:	fb5ff0ef          	jal	151a4 <__hidden___udivsi3>
   151f4:	00058513          	mv	a0,a1
   151f8:	00028067          	jr	t0
   151fc:	40a00533          	neg	a0,a0
   15200:	00b04863          	bgtz	a1,15210 <__umodsi3+0x24>
   15204:	40b005b3          	neg	a1,a1
   15208:	f9dff06f          	j	151a4 <__hidden___udivsi3>
   1520c:	40b005b3          	neg	a1,a1
   15210:	00008293          	mv	t0,ra
   15214:	f91ff0ef          	jal	151a4 <__hidden___udivsi3>
   15218:	40a00533          	neg	a0,a0
   1521c:	00028067          	jr	t0

00015220 <__modsi3>:
   15220:	00008293          	mv	t0,ra
   15224:	0005ca63          	bltz	a1,15238 <__modsi3+0x18>
   15228:	00054c63          	bltz	a0,15240 <__modsi3+0x20>
   1522c:	f79ff0ef          	jal	151a4 <__hidden___udivsi3>
   15230:	00058513          	mv	a0,a1
   15234:	00028067          	jr	t0
   15238:	40b005b3          	neg	a1,a1
   1523c:	fe0558e3          	bgez	a0,1522c <__modsi3+0xc>
   15240:	40a00533          	neg	a0,a0
   15244:	f61ff0ef          	jal	151a4 <__hidden___udivsi3>
   15248:	40b00533          	neg	a0,a1
   1524c:	00028067          	jr	t0

00015250 <__clzsi2>:
   15250:	000107b7          	lui	a5,0x10
   15254:	02f57863          	bgeu	a0,a5,15284 <__clzsi2+0x34>
   15258:	10053793          	sltiu	a5,a0,256
   1525c:	0017b793          	seqz	a5,a5
   15260:	00379793          	slli	a5,a5,0x3
   15264:	02000693          	li	a3,32
   15268:	40f686b3          	sub	a3,a3,a5
   1526c:	00f55533          	srl	a0,a0,a5
   15270:	02518793          	addi	a5,gp,37 # 1645c <__clz_tab>
   15274:	00a787b3          	add	a5,a5,a0
   15278:	0007c503          	lbu	a0,0(a5) # 10000 <entry>
   1527c:	40a68533          	sub	a0,a3,a0
   15280:	00008067          	ret
   15284:	01000737          	lui	a4,0x1000
   15288:	01800793          	li	a5,24
   1528c:	fce57ce3          	bgeu	a0,a4,15264 <__clzsi2+0x14>
   15290:	01000793          	li	a5,16
   15294:	fd1ff06f          	j	15264 <__clzsi2+0x14>

00015298 <modf>:
   15298:	4145d793          	srai	a5,a1,0x14
   1529c:	ff010113          	addi	sp,sp,-16
   152a0:	7ff7f793          	andi	a5,a5,2047
   152a4:	00812423          	sw	s0,8(sp)
   152a8:	00912223          	sw	s1,4(sp)
   152ac:	01212023          	sw	s2,0(sp)
   152b0:	00112623          	sw	ra,12(sp)
   152b4:	c0178713          	addi	a4,a5,-1023
   152b8:	01300693          	li	a3,19
   152bc:	00058413          	mv	s0,a1
   152c0:	00050493          	mv	s1,a0
   152c4:	00060913          	mv	s2,a2
   152c8:	04e6cc63          	blt	a3,a4,15320 <modf+0x88>
   152cc:	10074a63          	bltz	a4,153e0 <modf+0x148>
   152d0:	001007b7          	lui	a5,0x100
   152d4:	fff78793          	addi	a5,a5,-1 # fffff <__stack_end+0xe7fff>
   152d8:	40e7d7b3          	sra	a5,a5,a4
   152dc:	00b7f733          	and	a4,a5,a1
   152e0:	00a76733          	or	a4,a4,a0
   152e4:	06071a63          	bnez	a4,15358 <modf+0xc0>
   152e8:	00040793          	mv	a5,s0
   152ec:	800006b7          	lui	a3,0x80000
   152f0:	00992023          	sw	s1,0(s2)
   152f4:	0086f433          	and	s0,a3,s0
   152f8:	00f92223          	sw	a5,4(s2)
   152fc:	00000493          	li	s1,0
   15300:	00c12083          	lw	ra,12(sp)
   15304:	00040593          	mv	a1,s0
   15308:	00812403          	lw	s0,8(sp)
   1530c:	00012903          	lw	s2,0(sp)
   15310:	00048513          	mv	a0,s1
   15314:	00412483          	lw	s1,4(sp)
   15318:	01010113          	addi	sp,sp,16
   1531c:	00008067          	ret
   15320:	03300693          	li	a3,51
   15324:	08e6c263          	blt	a3,a4,153a8 <modf+0x110>
   15328:	fff00713          	li	a4,-1
   1532c:	bed78793          	addi	a5,a5,-1043
   15330:	00f757b3          	srl	a5,a4,a5
   15334:	00a7f733          	and	a4,a5,a0
   15338:	fa0708e3          	beqz	a4,152e8 <modf+0x50>
   1533c:	fff7c793          	not	a5,a5
   15340:	00a7f7b3          	and	a5,a5,a0
   15344:	00078813          	mv	a6,a5
   15348:	00078613          	mv	a2,a5
   1534c:	00058893          	mv	a7,a1
   15350:	00058693          	mv	a3,a1
   15354:	0200006f          	j	15374 <modf+0xdc>
   15358:	fff7c793          	not	a5,a5
   1535c:	00000713          	li	a4,0
   15360:	00b7f7b3          	and	a5,a5,a1
   15364:	00070813          	mv	a6,a4
   15368:	00070613          	mv	a2,a4
   1536c:	00078893          	mv	a7,a5
   15370:	00078693          	mv	a3,a5
   15374:	01092023          	sw	a6,0(s2)
   15378:	01192223          	sw	a7,4(s2)
   1537c:	114000ef          	jal	15490 <__subdf3>
   15380:	00058413          	mv	s0,a1
   15384:	00c12083          	lw	ra,12(sp)
   15388:	00040593          	mv	a1,s0
   1538c:	00812403          	lw	s0,8(sp)
   15390:	00050493          	mv	s1,a0
   15394:	00012903          	lw	s2,0(sp)
   15398:	00048513          	mv	a0,s1
   1539c:	00412483          	lw	s1,4(sp)
   153a0:	01010113          	addi	sp,sp,16
   153a4:	00008067          	ret
   153a8:	00a92023          	sw	a0,0(s2)
   153ac:	00b92223          	sw	a1,4(s2)
   153b0:	070000ef          	jal	15420 <__fpclassifyd>
   153b4:	04051e63          	bnez	a0,15410 <modf+0x178>
   153b8:	00048613          	mv	a2,s1
   153bc:	00048513          	mv	a0,s1
   153c0:	00040693          	mv	a3,s0
   153c4:	00040593          	mv	a1,s0
   153c8:	cccfe0ef          	jal	13894 <__adddf3>
   153cc:	00050493          	mv	s1,a0
   153d0:	00058413          	mv	s0,a1
   153d4:	00a92023          	sw	a0,0(s2)
   153d8:	00b92223          	sw	a1,4(s2)
   153dc:	f25ff06f          	j	15300 <modf+0x68>
   153e0:	800007b7          	lui	a5,0x80000
   153e4:	00c12083          	lw	ra,12(sp)
   153e8:	00b7f7b3          	and	a5,a5,a1
   153ec:	00040593          	mv	a1,s0
   153f0:	00812403          	lw	s0,8(sp)
   153f4:	00062023          	sw	zero,0(a2) # 10000 <entry>
   153f8:	00f62223          	sw	a5,4(a2)
   153fc:	00012903          	lw	s2,0(sp)
   15400:	00048513          	mv	a0,s1
   15404:	00412483          	lw	s1,4(sp)
   15408:	01010113          	addi	sp,sp,16
   1540c:	00008067          	ret
   15410:	800007b7          	lui	a5,0x80000
   15414:	0087f433          	and	s0,a5,s0
   15418:	00000493          	li	s1,0
   1541c:	ee5ff06f          	j	15300 <modf+0x68>

00015420 <__fpclassifyd>:
   15420:	00b56733          	or	a4,a0,a1
   15424:	00050793          	mv	a5,a0
   15428:	04070c63          	beqz	a4,15480 <__fpclassifyd+0x60>
   1542c:	80000737          	lui	a4,0x80000
   15430:	04e58263          	beq	a1,a4,15474 <__fpclassifyd+0x54>
   15434:	fff70693          	addi	a3,a4,-1 # 7fffffff <__stack_end+0x7ffe7fff>
   15438:	00b6f6b3          	and	a3,a3,a1
   1543c:	fff00837          	lui	a6,0xfff00
   15440:	01068833          	add	a6,a3,a6
   15444:	7fe008b7          	lui	a7,0x7fe00
   15448:	00400513          	li	a0,4
   1544c:	03186263          	bltu	a6,a7,15470 <__fpclassifyd+0x50>
   15450:	00100837          	lui	a6,0x100
   15454:	00300513          	li	a0,3
   15458:	0105ec63          	bltu	a1,a6,15470 <__fpclassifyd+0x50>
   1545c:	00b70733          	add	a4,a4,a1
   15460:	01076863          	bltu	a4,a6,15470 <__fpclassifyd+0x50>
   15464:	7ff00737          	lui	a4,0x7ff00
   15468:	00000513          	li	a0,0
   1546c:	00e68e63          	beq	a3,a4,15488 <__fpclassifyd+0x68>
   15470:	00008067          	ret
   15474:	00a03533          	snez	a0,a0
   15478:	00250513          	addi	a0,a0,2
   1547c:	00008067          	ret
   15480:	00200513          	li	a0,2
   15484:	00008067          	ret
   15488:	0017b513          	seqz	a0,a5
   1548c:	00008067          	ret

00015490 <__subdf3>:
   15490:	00100837          	lui	a6,0x100
   15494:	fff80813          	addi	a6,a6,-1 # fffff <__stack_end+0xe7fff>
   15498:	fe010113          	addi	sp,sp,-32
   1549c:	00b878b3          	and	a7,a6,a1
   154a0:	0145d713          	srli	a4,a1,0x14
   154a4:	01d55793          	srli	a5,a0,0x1d
   154a8:	00d87833          	and	a6,a6,a3
   154ac:	01212823          	sw	s2,16(sp)
   154b0:	7ff77913          	andi	s2,a4,2047
   154b4:	00389713          	slli	a4,a7,0x3
   154b8:	0146d893          	srli	a7,a3,0x14
   154bc:	00912a23          	sw	s1,20(sp)
   154c0:	00e7e7b3          	or	a5,a5,a4
   154c4:	01f5d493          	srli	s1,a1,0x1f
   154c8:	01d65713          	srli	a4,a2,0x1d
   154cc:	00381813          	slli	a6,a6,0x3
   154d0:	00112e23          	sw	ra,28(sp)
   154d4:	00812c23          	sw	s0,24(sp)
   154d8:	01312623          	sw	s3,12(sp)
   154dc:	7ff8f893          	andi	a7,a7,2047
   154e0:	7ff00593          	li	a1,2047
   154e4:	00351513          	slli	a0,a0,0x3
   154e8:	01f6d693          	srli	a3,a3,0x1f
   154ec:	01076733          	or	a4,a4,a6
   154f0:	00361613          	slli	a2,a2,0x3
   154f4:	00b89663          	bne	a7,a1,15500 <__subdf3+0x70>
   154f8:	00c765b3          	or	a1,a4,a2
   154fc:	00059463          	bnez	a1,15504 <__subdf3+0x74>
   15500:	0016c693          	xori	a3,a3,1
   15504:	41190833          	sub	a6,s2,a7
   15508:	2a969a63          	bne	a3,s1,157bc <__subdf3+0x32c>
   1550c:	11005c63          	blez	a6,15624 <__subdf3+0x194>
   15510:	04089063          	bnez	a7,15550 <__subdf3+0xc0>
   15514:	00c766b3          	or	a3,a4,a2
   15518:	66068063          	beqz	a3,15b78 <__subdf3+0x6e8>
   1551c:	fff80593          	addi	a1,a6,-1
   15520:	02059063          	bnez	a1,15540 <__subdf3+0xb0>
   15524:	00c50633          	add	a2,a0,a2
   15528:	00a636b3          	sltu	a3,a2,a0
   1552c:	00e78733          	add	a4,a5,a4
   15530:	00060513          	mv	a0,a2
   15534:	00d707b3          	add	a5,a4,a3
   15538:	00100913          	li	s2,1
   1553c:	06c0006f          	j	155a8 <__subdf3+0x118>
   15540:	7ff00693          	li	a3,2047
   15544:	02d81063          	bne	a6,a3,15564 <__subdf3+0xd4>
   15548:	7ff00913          	li	s2,2047
   1554c:	1f80006f          	j	15744 <__subdf3+0x2b4>
   15550:	7ff00693          	li	a3,2047
   15554:	1ed90863          	beq	s2,a3,15744 <__subdf3+0x2b4>
   15558:	008006b7          	lui	a3,0x800
   1555c:	00d76733          	or	a4,a4,a3
   15560:	00080593          	mv	a1,a6
   15564:	03800693          	li	a3,56
   15568:	0ab6c863          	blt	a3,a1,15618 <__subdf3+0x188>
   1556c:	01f00693          	li	a3,31
   15570:	06b6ca63          	blt	a3,a1,155e4 <__subdf3+0x154>
   15574:	02000813          	li	a6,32
   15578:	40b80833          	sub	a6,a6,a1
   1557c:	010716b3          	sll	a3,a4,a6
   15580:	00b658b3          	srl	a7,a2,a1
   15584:	01061833          	sll	a6,a2,a6
